
./diary:     file format elf64-x86-64


Disassembly of section .init:

0000000000400820 <.init>:
  400820:	48 83 ec 08          	sub    $0x8,%rsp
  400824:	48 8b 05 cd 57 20 00 	mov    0x2057cd(%rip),%rax        # 605ff8 <rand@plt+0x205688>
  40082b:	48 85 c0             	test   %rax,%rax
  40082e:	74 05                	je     400835 <free@plt-0x1b>
  400830:	e8 bb 00 00 00       	callq  4008f0 <__gmon_start__@plt>
  400835:	48 83 c4 08          	add    $0x8,%rsp
  400839:	c3                   	retq   

Disassembly of section .plt:

0000000000400840 <free@plt-0x10>:
  400840:	ff 35 c2 57 20 00    	pushq  0x2057c2(%rip)        # 606008 <rand@plt+0x205698>
  400846:	ff 25 c4 57 20 00    	jmpq   *0x2057c4(%rip)        # 606010 <rand@plt+0x2056a0>
  40084c:	0f 1f 40 00          	nopl   0x0(%rax)

0000000000400850 <free@plt>:
  400850:	ff 25 c2 57 20 00    	jmpq   *0x2057c2(%rip)        # 606018 <rand@plt+0x2056a8>
  400856:	68 00 00 00 00       	pushq  $0x0
  40085b:	e9 e0 ff ff ff       	jmpq   400840 <free@plt-0x10>

0000000000400860 <strcpy@plt>:
  400860:	ff 25 ba 57 20 00    	jmpq   *0x2057ba(%rip)        # 606020 <rand@plt+0x2056b0>
  400866:	68 01 00 00 00       	pushq  $0x1
  40086b:	e9 d0 ff ff ff       	jmpq   400840 <free@plt-0x10>

0000000000400870 <puts@plt>:
  400870:	ff 25 b2 57 20 00    	jmpq   *0x2057b2(%rip)        # 606028 <rand@plt+0x2056b8>
  400876:	68 02 00 00 00       	pushq  $0x2
  40087b:	e9 c0 ff ff ff       	jmpq   400840 <free@plt-0x10>

0000000000400880 <write@plt>:
  400880:	ff 25 aa 57 20 00    	jmpq   *0x2057aa(%rip)        # 606030 <rand@plt+0x2056c0>
  400886:	68 03 00 00 00       	pushq  $0x3
  40088b:	e9 b0 ff ff ff       	jmpq   400840 <free@plt-0x10>

0000000000400890 <__stack_chk_fail@plt>:
  400890:	ff 25 a2 57 20 00    	jmpq   *0x2057a2(%rip)        # 606038 <rand@plt+0x2056c8>
  400896:	68 04 00 00 00       	pushq  $0x4
  40089b:	e9 a0 ff ff ff       	jmpq   400840 <free@plt-0x10>

00000000004008a0 <read@plt>:
  4008a0:	ff 25 9a 57 20 00    	jmpq   *0x20579a(%rip)        # 606040 <rand@plt+0x2056d0>
  4008a6:	68 05 00 00 00       	pushq  $0x5
  4008ab:	e9 90 ff ff ff       	jmpq   400840 <free@plt-0x10>

00000000004008b0 <__libc_start_main@plt>:
  4008b0:	ff 25 92 57 20 00    	jmpq   *0x205792(%rip)        # 606048 <rand@plt+0x2056d8>
  4008b6:	68 06 00 00 00       	pushq  $0x6
  4008bb:	e9 80 ff ff ff       	jmpq   400840 <free@plt-0x10>

00000000004008c0 <srand@plt>:
  4008c0:	ff 25 8a 57 20 00    	jmpq   *0x20578a(%rip)        # 606050 <rand@plt+0x2056e0>
  4008c6:	68 07 00 00 00       	pushq  $0x7
  4008cb:	e9 70 ff ff ff       	jmpq   400840 <free@plt-0x10>

00000000004008d0 <fgets@plt>:
  4008d0:	ff 25 82 57 20 00    	jmpq   *0x205782(%rip)        # 606058 <rand@plt+0x2056e8>
  4008d6:	68 08 00 00 00       	pushq  $0x8
  4008db:	e9 60 ff ff ff       	jmpq   400840 <free@plt-0x10>

00000000004008e0 <getchar@plt>:
  4008e0:	ff 25 7a 57 20 00    	jmpq   *0x20577a(%rip)        # 606060 <rand@plt+0x2056f0>
  4008e6:	68 09 00 00 00       	pushq  $0x9
  4008eb:	e9 50 ff ff ff       	jmpq   400840 <free@plt-0x10>

00000000004008f0 <__gmon_start__@plt>:
  4008f0:	ff 25 72 57 20 00    	jmpq   *0x205772(%rip)        # 606068 <rand@plt+0x2056f8>
  4008f6:	68 0a 00 00 00       	pushq  $0xa
  4008fb:	e9 40 ff ff ff       	jmpq   400840 <free@plt-0x10>

0000000000400900 <time@plt>:
  400900:	ff 25 6a 57 20 00    	jmpq   *0x20576a(%rip)        # 606070 <rand@plt+0x205700>
  400906:	68 0b 00 00 00       	pushq  $0xb
  40090b:	e9 30 ff ff ff       	jmpq   400840 <free@plt-0x10>

0000000000400910 <malloc@plt>:
  400910:	ff 25 62 57 20 00    	jmpq   *0x205762(%rip)        # 606078 <rand@plt+0x205708>
  400916:	68 0c 00 00 00       	pushq  $0xc
  40091b:	e9 20 ff ff ff       	jmpq   400840 <free@plt-0x10>

0000000000400920 <fflush@plt>:
  400920:	ff 25 5a 57 20 00    	jmpq   *0x20575a(%rip)        # 606080 <rand@plt+0x205710>
  400926:	68 0d 00 00 00       	pushq  $0xd
  40092b:	e9 10 ff ff ff       	jmpq   400840 <free@plt-0x10>

0000000000400930 <setvbuf@plt>:
  400930:	ff 25 52 57 20 00    	jmpq   *0x205752(%rip)        # 606088 <rand@plt+0x205718>
  400936:	68 0e 00 00 00       	pushq  $0xe
  40093b:	e9 00 ff ff ff       	jmpq   400840 <free@plt-0x10>

0000000000400940 <open@plt>:
  400940:	ff 25 4a 57 20 00    	jmpq   *0x20574a(%rip)        # 606090 <rand@plt+0x205720>
  400946:	68 0f 00 00 00       	pushq  $0xf
  40094b:	e9 f0 fe ff ff       	jmpq   400840 <free@plt-0x10>

0000000000400950 <__isoc99_scanf@plt>:
  400950:	ff 25 42 57 20 00    	jmpq   *0x205742(%rip)        # 606098 <rand@plt+0x205728>
  400956:	68 10 00 00 00       	pushq  $0x10
  40095b:	e9 e0 fe ff ff       	jmpq   400840 <free@plt-0x10>

0000000000400960 <exit@plt>:
  400960:	ff 25 3a 57 20 00    	jmpq   *0x20573a(%rip)        # 6060a0 <rand@plt+0x205730>
  400966:	68 11 00 00 00       	pushq  $0x11
  40096b:	e9 d0 fe ff ff       	jmpq   400840 <free@plt-0x10>

0000000000400970 <rand@plt>:
  400970:	ff 25 32 57 20 00    	jmpq   *0x205732(%rip)        # 6060a8 <rand@plt+0x205738>
  400976:	68 12 00 00 00       	pushq  $0x12
  40097b:	e9 c0 fe ff ff       	jmpq   400840 <free@plt-0x10>

Disassembly of section .text:

0000000000400980 <.text>:
  400980:	31 ed                	xor    %ebp,%ebp
  400982:	49 89 d1             	mov    %rdx,%r9
  400985:	5e                   	pop    %rsi
  400986:	48 89 e2             	mov    %rsp,%rdx
  400989:	48 83 e4 f0          	and    $0xfffffffffffffff0,%rsp
  40098d:	50                   	push   %rax
  40098e:	54                   	push   %rsp
  40098f:	49 c7 c0 c0 39 40 00 	mov    $0x4039c0,%r8
  400996:	48 c7 c1 50 39 40 00 	mov    $0x403950,%rcx
  40099d:	48 c7 c7 6d 0a 40 00 	mov    $0x400a6d,%rdi
  4009a4:	e8 07 ff ff ff       	callq  4008b0 <__libc_start_main@plt>
  4009a9:	f4                   	hlt    
  4009aa:	66 0f 1f 44 00 00    	nopw   0x0(%rax,%rax,1)
  4009b0:	b8 c7 60 60 00       	mov    $0x6060c7,%eax
  4009b5:	55                   	push   %rbp
  4009b6:	48 2d c0 60 60 00    	sub    $0x6060c0,%rax
  4009bc:	48 83 f8 0e          	cmp    $0xe,%rax
  4009c0:	48 89 e5             	mov    %rsp,%rbp
  4009c3:	77 02                	ja     4009c7 <rand@plt+0x57>
  4009c5:	5d                   	pop    %rbp
  4009c6:	c3                   	retq   
  4009c7:	b8 00 00 00 00       	mov    $0x0,%eax
  4009cc:	48 85 c0             	test   %rax,%rax
  4009cf:	74 f4                	je     4009c5 <rand@plt+0x55>
  4009d1:	5d                   	pop    %rbp
  4009d2:	bf c0 60 60 00       	mov    $0x6060c0,%edi
  4009d7:	ff e0                	jmpq   *%rax
  4009d9:	0f 1f 80 00 00 00 00 	nopl   0x0(%rax)
  4009e0:	b8 c0 60 60 00       	mov    $0x6060c0,%eax
  4009e5:	55                   	push   %rbp
  4009e6:	48 2d c0 60 60 00    	sub    $0x6060c0,%rax
  4009ec:	48 c1 f8 03          	sar    $0x3,%rax
  4009f0:	48 89 e5             	mov    %rsp,%rbp
  4009f3:	48 89 c2             	mov    %rax,%rdx
  4009f6:	48 c1 ea 3f          	shr    $0x3f,%rdx
  4009fa:	48 01 d0             	add    %rdx,%rax
  4009fd:	48 d1 f8             	sar    %rax
  400a00:	75 02                	jne    400a04 <rand@plt+0x94>
  400a02:	5d                   	pop    %rbp
  400a03:	c3                   	retq   
  400a04:	ba 00 00 00 00       	mov    $0x0,%edx
  400a09:	48 85 d2             	test   %rdx,%rdx
  400a0c:	74 f4                	je     400a02 <rand@plt+0x92>
  400a0e:	5d                   	pop    %rbp
  400a0f:	48 89 c6             	mov    %rax,%rsi
  400a12:	bf c0 60 60 00       	mov    $0x6060c0,%edi
  400a17:	ff e2                	jmpq   *%rdx
  400a19:	0f 1f 80 00 00 00 00 	nopl   0x0(%rax)
  400a20:	80 3d a9 56 20 00 00 	cmpb   $0x0,0x2056a9(%rip)        # 6060d0 <stdin@@GLIBC_2.2.5+0x8>
  400a27:	75 11                	jne    400a3a <rand@plt+0xca>
  400a29:	55                   	push   %rbp
  400a2a:	48 89 e5             	mov    %rsp,%rbp
  400a2d:	e8 7e ff ff ff       	callq  4009b0 <rand@plt+0x40>
  400a32:	5d                   	pop    %rbp
  400a33:	c6 05 96 56 20 00 01 	movb   $0x1,0x205696(%rip)        # 6060d0 <stdin@@GLIBC_2.2.5+0x8>
  400a3a:	f3 c3                	repz retq 
  400a3c:	0f 1f 40 00          	nopl   0x0(%rax)
  400a40:	48 83 3d d8 53 20 00 	cmpq   $0x0,0x2053d8(%rip)        # 605e20 <rand@plt+0x2054b0>
  400a47:	00 
  400a48:	74 1e                	je     400a68 <rand@plt+0xf8>
  400a4a:	b8 00 00 00 00       	mov    $0x0,%eax
  400a4f:	48 85 c0             	test   %rax,%rax
  400a52:	74 14                	je     400a68 <rand@plt+0xf8>
  400a54:	55                   	push   %rbp
  400a55:	bf 20 5e 60 00       	mov    $0x605e20,%edi
  400a5a:	48 89 e5             	mov    %rsp,%rbp
  400a5d:	ff d0                	callq  *%rax
  400a5f:	5d                   	pop    %rbp
  400a60:	e9 7b ff ff ff       	jmpq   4009e0 <rand@plt+0x70>
  400a65:	0f 1f 00             	nopl   (%rax)
  400a68:	e9 73 ff ff ff       	jmpq   4009e0 <rand@plt+0x70>
  400a6d:	55                   	push   %rbp
  400a6e:	48 89 e5             	mov    %rsp,%rbp
  400a71:	48 83 ec 20          	sub    $0x20,%rsp
  400a75:	89 7d ec             	mov    %edi,-0x14(%rbp)
  400a78:	48 89 75 e0          	mov    %rsi,-0x20(%rbp)
  400a7c:	c7 45 fc 00 00 00 00 	movl   $0x0,-0x4(%rbp)
  400a83:	48 8b 05 36 56 20 00 	mov    0x205636(%rip),%rax        # 6060c0 <stdout@@GLIBC_2.2.5>
  400a8a:	b9 00 00 00 00       	mov    $0x0,%ecx
  400a8f:	ba 02 00 00 00       	mov    $0x2,%edx
  400a94:	be 00 00 00 00       	mov    $0x0,%esi
  400a99:	48 89 c7             	mov    %rax,%rdi
  400a9c:	e8 8f fe ff ff       	callq  400930 <setvbuf@plt>
  400aa1:	48 8b 05 20 56 20 00 	mov    0x205620(%rip),%rax        # 6060c8 <stdin@@GLIBC_2.2.5>
  400aa8:	b9 00 00 00 00       	mov    $0x0,%ecx
  400aad:	ba 01 00 00 00       	mov    $0x1,%edx
  400ab2:	be 00 00 00 00       	mov    $0x0,%esi
  400ab7:	48 89 c7             	mov    %rax,%rdi
  400aba:	e8 71 fe ff ff       	callq  400930 <setvbuf@plt>
  400abf:	bf d8 39 40 00       	mov    $0x4039d8,%edi
  400ac4:	b8 00 00 00 00       	mov    $0x0,%eax
  400ac9:	e8 17 28 00 00       	callq  4032e5 <rand@plt+0x2975>
  400ace:	bf f0 39 40 00       	mov    $0x4039f0,%edi
  400ad3:	b8 00 00 00 00       	mov    $0x0,%eax
  400ad8:	e8 08 28 00 00       	callq  4032e5 <rand@plt+0x2975>
  400add:	e8 5b 04 00 00       	callq  400f3d <rand@plt+0x5cd>
  400ae2:	e8 8f 00 00 00       	callq  400b76 <rand@plt+0x206>
  400ae7:	89 45 fc             	mov    %eax,-0x4(%rbp)
  400aea:	83 7d fc 00          	cmpl   $0x0,-0x4(%rbp)
  400aee:	75 19                	jne    400b09 <rand@plt+0x199>
  400af0:	bf 21 3a 40 00       	mov    $0x403a21,%edi
  400af5:	b8 00 00 00 00       	mov    $0x0,%eax
  400afa:	e8 e6 27 00 00       	callq  4032e5 <rand@plt+0x2975>
  400aff:	bf 01 00 00 00       	mov    $0x1,%edi
  400b04:	e8 57 fe ff ff       	callq  400960 <exit@plt>
  400b09:	e8 2f 04 00 00       	callq  400f3d <rand@plt+0x5cd>
  400b0e:	e8 3a 02 00 00       	callq  400d4d <rand@plt+0x3dd>
  400b13:	e8 05 05 00 00       	callq  40101d <rand@plt+0x6ad>
  400b18:	b8 00 00 00 00       	mov    $0x0,%eax
  400b1d:	c9                   	leaveq 
  400b1e:	c3                   	retq   
  400b1f:	55                   	push   %rbp
  400b20:	48 89 e5             	mov    %rsp,%rbp
  400b23:	90                   	nop
  400b24:	e8 b7 fd ff ff       	callq  4008e0 <getchar@plt>
  400b29:	83 f8 0a             	cmp    $0xa,%eax
  400b2c:	75 f6                	jne    400b24 <rand@plt+0x1b4>
  400b2e:	5d                   	pop    %rbp
  400b2f:	c3                   	retq   
  400b30:	55                   	push   %rbp
  400b31:	48 89 e5             	mov    %rsp,%rbp
  400b34:	48 89 7d e8          	mov    %rdi,-0x18(%rbp)
  400b38:	89 75 e4             	mov    %esi,-0x1c(%rbp)
  400b3b:	c7 45 fc 00 00 00 00 	movl   $0x0,-0x4(%rbp)
  400b42:	eb 28                	jmp    400b6c <rand@plt+0x1fc>
  400b44:	8b 45 fc             	mov    -0x4(%rbp),%eax
  400b47:	48 63 d0             	movslq %eax,%rdx
  400b4a:	48 8b 45 e8          	mov    -0x18(%rbp),%rax
  400b4e:	48 01 d0             	add    %rdx,%rax
  400b51:	0f b6 00             	movzbl (%rax),%eax
  400b54:	3c 0a                	cmp    $0xa,%al
  400b56:	75 10                	jne    400b68 <rand@plt+0x1f8>
  400b58:	8b 45 fc             	mov    -0x4(%rbp),%eax
  400b5b:	48 63 d0             	movslq %eax,%rdx
  400b5e:	48 8b 45 e8          	mov    -0x18(%rbp),%rax
  400b62:	48 01 d0             	add    %rdx,%rax
  400b65:	c6 00 00             	movb   $0x0,(%rax)
  400b68:	83 45 fc 01          	addl   $0x1,-0x4(%rbp)
  400b6c:	8b 45 fc             	mov    -0x4(%rbp),%eax
  400b6f:	3b 45 e4             	cmp    -0x1c(%rbp),%eax
  400b72:	7e d0                	jle    400b44 <rand@plt+0x1d4>
  400b74:	5d                   	pop    %rbp
  400b75:	c3                   	retq   
  400b76:	55                   	push   %rbp
  400b77:	48 89 e5             	mov    %rsp,%rbp
  400b7a:	48 c7 05 53 55 20 00 	movq   $0x0,0x205553(%rip)        # 6060d8 <stdin@@GLIBC_2.2.5+0x10>
  400b81:	00 00 00 00 
  400b85:	48 c7 05 50 55 20 00 	movq   $0x0,0x205550(%rip)        # 6060e0 <stdin@@GLIBC_2.2.5+0x18>
  400b8c:	00 00 00 00 
  400b90:	48 c7 05 55 55 20 00 	movq   $0x0,0x205555(%rip)        # 6060f0 <stdin@@GLIBC_2.2.5+0x28>
  400b97:	00 00 00 00 
  400b9b:	48 c7 05 7a 55 20 00 	movq   $0x0,0x20557a(%rip)        # 606120 <stdin@@GLIBC_2.2.5+0x58>
  400ba2:	00 00 00 00 
  400ba6:	48 c7 05 4f 55 20 00 	movq   $0x0,0x20554f(%rip)        # 606100 <stdin@@GLIBC_2.2.5+0x38>
  400bad:	00 00 00 00 
  400bb1:	48 c7 05 2c 55 20 00 	movq   $0x0,0x20552c(%rip)        # 6060e8 <stdin@@GLIBC_2.2.5+0x20>
  400bb8:	00 00 00 00 
  400bbc:	48 c7 05 61 55 20 00 	movq   $0x0,0x205561(%rip)        # 606128 <stdin@@GLIBC_2.2.5+0x60>
  400bc3:	00 00 00 00 
  400bc7:	48 c7 05 5e 55 20 00 	movq   $0x0,0x20555e(%rip)        # 606130 <stdin@@GLIBC_2.2.5+0x68>
  400bce:	00 00 00 00 
  400bd2:	48 c7 05 2b 55 20 00 	movq   $0x0,0x20552b(%rip)        # 606108 <stdin@@GLIBC_2.2.5+0x40>
  400bd9:	00 00 00 00 
  400bdd:	48 c7 05 28 55 20 00 	movq   $0x0,0x205528(%rip)        # 606110 <stdin@@GLIBC_2.2.5+0x48>
  400be4:	00 00 00 00 
  400be8:	48 c7 05 25 55 20 00 	movq   $0x0,0x205525(%rip)        # 606118 <stdin@@GLIBC_2.2.5+0x50>
  400bef:	00 00 00 00 
  400bf3:	bf 80 00 00 00       	mov    $0x80,%edi
  400bf8:	e8 13 fd ff ff       	callq  400910 <malloc@plt>
  400bfd:	48 89 05 f4 54 20 00 	mov    %rax,0x2054f4(%rip)        # 6060f8 <stdin@@GLIBC_2.2.5+0x30>
  400c04:	48 8b 05 ed 54 20 00 	mov    0x2054ed(%rip),%rax        # 6060f8 <stdin@@GLIBC_2.2.5+0x30>
  400c0b:	48 85 c0             	test   %rax,%rax
  400c0e:	75 19                	jne    400c29 <rand@plt+0x2b9>
  400c10:	bf 38 3a 40 00       	mov    $0x403a38,%edi
  400c15:	b8 00 00 00 00       	mov    $0x0,%eax
  400c1a:	e8 c6 26 00 00       	callq  4032e5 <rand@plt+0x2975>
  400c1f:	b8 00 00 00 00       	mov    $0x0,%eax
  400c24:	e9 22 01 00 00       	jmpq   400d4b <rand@plt+0x3db>
  400c29:	bf 47 3a 40 00       	mov    $0x403a47,%edi
  400c2e:	b8 00 00 00 00       	mov    $0x0,%eax
  400c33:	e8 ad 26 00 00       	callq  4032e5 <rand@plt+0x2975>
  400c38:	bf 51 3a 40 00       	mov    $0x403a51,%edi
  400c3d:	b8 00 00 00 00       	mov    $0x0,%eax
  400c42:	e8 9e 26 00 00       	callq  4032e5 <rand@plt+0x2975>
  400c47:	48 8b 15 7a 54 20 00 	mov    0x20547a(%rip),%rdx        # 6060c8 <stdin@@GLIBC_2.2.5>
  400c4e:	48 8b 05 a3 54 20 00 	mov    0x2054a3(%rip),%rax        # 6060f8 <stdin@@GLIBC_2.2.5+0x30>
  400c55:	be 14 00 00 00       	mov    $0x14,%esi
  400c5a:	48 89 c7             	mov    %rax,%rdi
  400c5d:	e8 6e fc ff ff       	callq  4008d0 <fgets@plt>
  400c62:	48 8b 05 8f 54 20 00 	mov    0x20548f(%rip),%rax        # 6060f8 <stdin@@GLIBC_2.2.5+0x30>
  400c69:	be 14 00 00 00       	mov    $0x14,%esi
  400c6e:	48 89 c7             	mov    %rax,%rdi
  400c71:	e8 ba fe ff ff       	callq  400b30 <rand@plt+0x1c0>
  400c76:	bf 6a 3a 40 00       	mov    $0x403a6a,%edi
  400c7b:	b8 00 00 00 00       	mov    $0x0,%eax
  400c80:	e8 60 26 00 00       	callq  4032e5 <rand@plt+0x2975>
  400c85:	48 8b 05 6c 54 20 00 	mov    0x20546c(%rip),%rax        # 6060f8 <stdin@@GLIBC_2.2.5+0x30>
  400c8c:	48 83 c0 14          	add    $0x14,%rax
  400c90:	48 89 c7             	mov    %rax,%rdi
  400c93:	e8 cf 02 00 00       	callq  400f67 <rand@plt+0x5f7>
  400c98:	bf 83 3a 40 00       	mov    $0x403a83,%edi
  400c9d:	b8 00 00 00 00       	mov    $0x0,%eax
  400ca2:	e8 3e 26 00 00       	callq  4032e5 <rand@plt+0x2975>
  400ca7:	bf 9c 3a 40 00       	mov    $0x403a9c,%edi
  400cac:	b8 00 00 00 00       	mov    $0x0,%eax
  400cb1:	e8 2f 26 00 00       	callq  4032e5 <rand@plt+0x2975>
  400cb6:	48 8b 05 3b 54 20 00 	mov    0x20543b(%rip),%rax        # 6060f8 <stdin@@GLIBC_2.2.5+0x30>
  400cbd:	48 83 c0 18          	add    $0x18,%rax
  400cc1:	48 89 c7             	mov    %rax,%rdi
  400cc4:	e8 9e 02 00 00       	callq  400f67 <rand@plt+0x5f7>
  400cc9:	48 8b 05 28 54 20 00 	mov    0x205428(%rip),%rax        # 6060f8 <stdin@@GLIBC_2.2.5+0x30>
  400cd0:	8b 40 18             	mov    0x18(%rax),%eax
  400cd3:	83 f8 03             	cmp    $0x3,%eax
  400cd6:	76 16                	jbe    400cee <rand@plt+0x37e>
  400cd8:	bf b2 3a 40 00       	mov    $0x403ab2,%edi
  400cdd:	b8 00 00 00 00       	mov    $0x0,%eax
  400ce2:	e8 fe 25 00 00       	callq  4032e5 <rand@plt+0x2975>
  400ce7:	b8 00 00 00 00       	mov    $0x0,%eax
  400cec:	eb 5d                	jmp    400d4b <rand@plt+0x3db>
  400cee:	bf c8 3a 40 00       	mov    $0x403ac8,%edi
  400cf3:	b8 00 00 00 00       	mov    $0x0,%eax
  400cf8:	e8 e8 25 00 00       	callq  4032e5 <rand@plt+0x2975>
  400cfd:	48 8b 05 c4 53 20 00 	mov    0x2053c4(%rip),%rax        # 6060c8 <stdin@@GLIBC_2.2.5>
  400d04:	48 8b 15 ed 53 20 00 	mov    0x2053ed(%rip),%rdx        # 6060f8 <stdin@@GLIBC_2.2.5+0x30>
  400d0b:	48 8d 4a 1c          	lea    0x1c(%rdx),%rcx
  400d0f:	48 89 c2             	mov    %rax,%rdx
  400d12:	be 64 00 00 00       	mov    $0x64,%esi
  400d17:	48 89 cf             	mov    %rcx,%rdi
  400d1a:	e8 b1 fb ff ff       	callq  4008d0 <fgets@plt>
  400d1f:	48 8b 05 d2 53 20 00 	mov    0x2053d2(%rip),%rax        # 6060f8 <stdin@@GLIBC_2.2.5+0x30>
  400d26:	48 83 c0 1c          	add    $0x1c,%rax
  400d2a:	be 64 00 00 00       	mov    $0x64,%esi
  400d2f:	48 89 c7             	mov    %rax,%rdi
  400d32:	e8 f9 fd ff ff       	callq  400b30 <rand@plt+0x1c0>
  400d37:	bf e1 3a 40 00       	mov    $0x403ae1,%edi
  400d3c:	b8 00 00 00 00       	mov    $0x0,%eax
  400d41:	e8 9f 25 00 00       	callq  4032e5 <rand@plt+0x2975>
  400d46:	b8 01 00 00 00       	mov    $0x1,%eax
  400d4b:	5d                   	pop    %rbp
  400d4c:	c3                   	retq   
  400d4d:	55                   	push   %rbp
  400d4e:	48 89 e5             	mov    %rsp,%rbp
  400d51:	e8 2a 01 00 00       	callq  400e80 <rand@plt+0x510>
  400d56:	48 8b 05 93 53 20 00 	mov    0x205393(%rip),%rax        # 6060f0 <stdin@@GLIBC_2.2.5+0x28>
  400d5d:	48 85 c0             	test   %rax,%rax
  400d60:	75 36                	jne    400d98 <rand@plt+0x428>
  400d62:	bf 04 00 00 00       	mov    $0x4,%edi
  400d67:	e8 a4 fb ff ff       	callq  400910 <malloc@plt>
  400d6c:	48 89 05 7d 53 20 00 	mov    %rax,0x20537d(%rip)        # 6060f0 <stdin@@GLIBC_2.2.5+0x28>
  400d73:	48 8b 05 76 53 20 00 	mov    0x205376(%rip),%rax        # 6060f0 <stdin@@GLIBC_2.2.5+0x28>
  400d7a:	48 85 c0             	test   %rax,%rax
  400d7d:	75 19                	jne    400d98 <rand@plt+0x428>
  400d7f:	bf 38 3a 40 00       	mov    $0x403a38,%edi
  400d84:	b8 00 00 00 00       	mov    $0x0,%eax
  400d89:	e8 57 25 00 00       	callq  4032e5 <rand@plt+0x2975>
  400d8e:	bf 01 00 00 00       	mov    $0x1,%edi
  400d93:	e8 c8 fb ff ff       	callq  400960 <exit@plt>
  400d98:	bf e6 3a 40 00       	mov    $0x403ae6,%edi
  400d9d:	b8 00 00 00 00       	mov    $0x0,%eax
  400da2:	e8 3e 25 00 00       	callq  4032e5 <rand@plt+0x2975>
  400da7:	bf f5 3a 40 00       	mov    $0x403af5,%edi
  400dac:	b8 00 00 00 00       	mov    $0x0,%eax
  400db1:	e8 2f 25 00 00       	callq  4032e5 <rand@plt+0x2975>
  400db6:	bf fe 3a 40 00       	mov    $0x403afe,%edi
  400dbb:	b8 00 00 00 00       	mov    $0x0,%eax
  400dc0:	e8 20 25 00 00       	callq  4032e5 <rand@plt+0x2975>
  400dc5:	bf 0c 3b 40 00       	mov    $0x403b0c,%edi
  400dca:	b8 00 00 00 00       	mov    $0x0,%eax
  400dcf:	e8 11 25 00 00       	callq  4032e5 <rand@plt+0x2975>
  400dd4:	bf 15 3b 40 00       	mov    $0x403b15,%edi
  400dd9:	b8 00 00 00 00       	mov    $0x0,%eax
  400dde:	e8 02 25 00 00       	callq  4032e5 <rand@plt+0x2975>
  400de3:	48 8b 05 d6 52 20 00 	mov    0x2052d6(%rip),%rax        # 6060c0 <stdout@@GLIBC_2.2.5>
  400dea:	48 89 c7             	mov    %rax,%rdi
  400ded:	e8 2e fb ff ff       	callq  400920 <fflush@plt>
  400df2:	48 8b 05 f7 52 20 00 	mov    0x2052f7(%rip),%rax        # 6060f0 <stdin@@GLIBC_2.2.5+0x28>
  400df9:	48 89 c7             	mov    %rax,%rdi
  400dfc:	e8 66 01 00 00       	callq  400f67 <rand@plt+0x5f7>
  400e01:	48 8b 05 e8 52 20 00 	mov    0x2052e8(%rip),%rax        # 6060f0 <stdin@@GLIBC_2.2.5+0x28>
  400e08:	8b 00                	mov    (%rax),%eax
  400e0a:	83 f8 02             	cmp    $0x2,%eax
  400e0d:	74 24                	je     400e33 <rand@plt+0x4c3>
  400e0f:	83 f8 02             	cmp    $0x2,%eax
  400e12:	7f 07                	jg     400e1b <rand@plt+0x4ab>
  400e14:	83 f8 01             	cmp    $0x1,%eax
  400e17:	74 0e                	je     400e27 <rand@plt+0x4b7>
  400e19:	eb 46                	jmp    400e61 <rand@plt+0x4f1>
  400e1b:	83 f8 03             	cmp    $0x3,%eax
  400e1e:	74 1f                	je     400e3f <rand@plt+0x4cf>
  400e20:	83 f8 04             	cmp    $0x4,%eax
  400e23:	74 26                	je     400e4b <rand@plt+0x4db>
  400e25:	eb 3a                	jmp    400e61 <rand@plt+0x4f1>
  400e27:	e8 11 01 00 00       	callq  400f3d <rand@plt+0x5cd>
  400e2c:	e8 33 09 00 00       	callq  401764 <rand@plt+0xdf4>
  400e31:	eb 48                	jmp    400e7b <rand@plt+0x50b>
  400e33:	e8 05 01 00 00       	callq  400f3d <rand@plt+0x5cd>
  400e38:	e8 ee 01 00 00       	callq  40102b <rand@plt+0x6bb>
  400e3d:	eb 3c                	jmp    400e7b <rand@plt+0x50b>
  400e3f:	e8 f9 00 00 00       	callq  400f3d <rand@plt+0x5cd>
  400e44:	e8 44 19 00 00       	callq  40278d <rand@plt+0x1e1d>
  400e49:	eb 30                	jmp    400e7b <rand@plt+0x50b>
  400e4b:	bf 1a 3b 40 00       	mov    $0x403b1a,%edi
  400e50:	b8 00 00 00 00       	mov    $0x0,%eax
  400e55:	e8 8b 24 00 00       	callq  4032e5 <rand@plt+0x2975>
  400e5a:	e8 be 01 00 00       	callq  40101d <rand@plt+0x6ad>
  400e5f:	eb 1a                	jmp    400e7b <rand@plt+0x50b>
  400e61:	bf 25 3b 40 00       	mov    $0x403b25,%edi
  400e66:	b8 00 00 00 00       	mov    $0x0,%eax
  400e6b:	e8 75 24 00 00       	callq  4032e5 <rand@plt+0x2975>
  400e70:	e8 dd 00 00 00       	callq  400f52 <rand@plt+0x5e2>
  400e75:	e8 d3 fe ff ff       	callq  400d4d <rand@plt+0x3dd>
  400e7a:	90                   	nop
  400e7b:	e9 72 ff ff ff       	jmpq   400df2 <rand@plt+0x482>
  400e80:	55                   	push   %rbp
  400e81:	48 89 e5             	mov    %rsp,%rbp
  400e84:	bf 38 3b 40 00       	mov    $0x403b38,%edi
  400e89:	b8 00 00 00 00       	mov    $0x0,%eax
  400e8e:	e8 52 24 00 00       	callq  4032e5 <rand@plt+0x2975>
  400e93:	48 8b 05 5e 52 20 00 	mov    0x20525e(%rip),%rax        # 6060f8 <stdin@@GLIBC_2.2.5+0x30>
  400e9a:	48 89 c6             	mov    %rax,%rsi
  400e9d:	bf 59 3b 40 00       	mov    $0x403b59,%edi
  400ea2:	b8 00 00 00 00       	mov    $0x0,%eax
  400ea7:	e8 39 24 00 00       	callq  4032e5 <rand@plt+0x2975>
  400eac:	48 8b 05 45 52 20 00 	mov    0x205245(%rip),%rax        # 6060f8 <stdin@@GLIBC_2.2.5+0x30>
  400eb3:	8b 40 14             	mov    0x14(%rax),%eax
  400eb6:	89 c6                	mov    %eax,%esi
  400eb8:	bf 66 3b 40 00       	mov    $0x403b66,%edi
  400ebd:	b8 00 00 00 00       	mov    $0x0,%eax
  400ec2:	e8 1e 24 00 00       	callq  4032e5 <rand@plt+0x2975>
  400ec7:	48 8b 05 2a 52 20 00 	mov    0x20522a(%rip),%rax        # 6060f8 <stdin@@GLIBC_2.2.5+0x30>
  400ece:	8b 40 18             	mov    0x18(%rax),%eax
  400ed1:	83 f8 01             	cmp    $0x1,%eax
  400ed4:	74 07                	je     400edd <rand@plt+0x56d>
  400ed6:	83 f8 02             	cmp    $0x2,%eax
  400ed9:	74 13                	je     400eee <rand@plt+0x57e>
  400edb:	eb 22                	jmp    400eff <rand@plt+0x58f>
  400edd:	bf 73 3b 40 00       	mov    $0x403b73,%edi
  400ee2:	b8 00 00 00 00       	mov    $0x0,%eax
  400ee7:	e8 f9 23 00 00       	callq  4032e5 <rand@plt+0x2975>
  400eec:	eb 21                	jmp    400f0f <rand@plt+0x59f>
  400eee:	bf 81 3b 40 00       	mov    $0x403b81,%edi
  400ef3:	b8 00 00 00 00       	mov    $0x0,%eax
  400ef8:	e8 e8 23 00 00       	callq  4032e5 <rand@plt+0x2975>
  400efd:	eb 10                	jmp    400f0f <rand@plt+0x59f>
  400eff:	bf 91 3b 40 00       	mov    $0x403b91,%edi
  400f04:	b8 00 00 00 00       	mov    $0x0,%eax
  400f09:	e8 d7 23 00 00       	callq  4032e5 <rand@plt+0x2975>
  400f0e:	90                   	nop
  400f0f:	48 8b 05 e2 51 20 00 	mov    0x2051e2(%rip),%rax        # 6060f8 <stdin@@GLIBC_2.2.5+0x30>
  400f16:	48 83 c0 1c          	add    $0x1c,%rax
  400f1a:	48 89 c6             	mov    %rax,%rsi
  400f1d:	bf a1 3b 40 00       	mov    $0x403ba1,%edi
  400f22:	b8 00 00 00 00       	mov    $0x0,%eax
  400f27:	e8 b9 23 00 00       	callq  4032e5 <rand@plt+0x2975>
  400f2c:	bf b0 3b 40 00       	mov    $0x403bb0,%edi
  400f31:	b8 00 00 00 00       	mov    $0x0,%eax
  400f36:	e8 aa 23 00 00       	callq  4032e5 <rand@plt+0x2975>
  400f3b:	5d                   	pop    %rbp
  400f3c:	c3                   	retq   
  400f3d:	55                   	push   %rbp
  400f3e:	48 89 e5             	mov    %rsp,%rbp
  400f41:	bf d0 3b 40 00       	mov    $0x403bd0,%edi
  400f46:	b8 00 00 00 00       	mov    $0x0,%eax
  400f4b:	e8 95 23 00 00       	callq  4032e5 <rand@plt+0x2975>
  400f50:	5d                   	pop    %rbp
  400f51:	c3                   	retq   
  400f52:	55                   	push   %rbp
  400f53:	48 89 e5             	mov    %rsp,%rbp
  400f56:	bf d0 3b 40 00       	mov    $0x403bd0,%edi
  400f5b:	b8 00 00 00 00       	mov    $0x0,%eax
  400f60:	e8 80 23 00 00       	callq  4032e5 <rand@plt+0x2975>
  400f65:	5d                   	pop    %rbp
  400f66:	c3                   	retq   
  400f67:	55                   	push   %rbp
  400f68:	48 89 e5             	mov    %rsp,%rbp
  400f6b:	48 83 ec 10          	sub    $0x10,%rsp
  400f6f:	48 89 7d f8          	mov    %rdi,-0x8(%rbp)
  400f73:	48 8b 45 f8          	mov    -0x8(%rbp),%rax
  400f77:	48 89 c6             	mov    %rax,%rsi
  400f7a:	bf db 3b 40 00       	mov    $0x403bdb,%edi
  400f7f:	b8 00 00 00 00       	mov    $0x0,%eax
  400f84:	e8 c7 f9 ff ff       	callq  400950 <__isoc99_scanf@plt>
  400f89:	90                   	nop
  400f8a:	e8 51 f9 ff ff       	callq  4008e0 <getchar@plt>
  400f8f:	83 f8 0a             	cmp    $0xa,%eax
  400f92:	75 f6                	jne    400f8a <rand@plt+0x61a>
  400f94:	48 8b 45 f8          	mov    -0x8(%rbp),%rax
  400f98:	8b 00                	mov    (%rax),%eax
  400f9a:	c9                   	leaveq 
  400f9b:	c3                   	retq   
  400f9c:	55                   	push   %rbp
  400f9d:	48 89 e5             	mov    %rsp,%rbp
  400fa0:	48 83 ec 10          	sub    $0x10,%rsp
  400fa4:	48 8b 15 1d 51 20 00 	mov    0x20511d(%rip),%rdx        # 6060c8 <stdin@@GLIBC_2.2.5>
  400fab:	48 8d 45 f0          	lea    -0x10(%rbp),%rax
  400faf:	be 02 00 00 00       	mov    $0x2,%esi
  400fb4:	48 89 c7             	mov    %rax,%rdi
  400fb7:	e8 14 f9 ff ff       	callq  4008d0 <fgets@plt>
  400fbc:	48 8d 45 f0          	lea    -0x10(%rbp),%rax
  400fc0:	be 02 00 00 00       	mov    $0x2,%esi
  400fc5:	48 89 c7             	mov    %rax,%rdi
  400fc8:	e8 63 fb ff ff       	callq  400b30 <rand@plt+0x1c0>
  400fcd:	48 8d 45 f0          	lea    -0x10(%rbp),%rax
  400fd1:	48 83 f8 59          	cmp    $0x59,%rax
  400fd5:	75 07                	jne    400fde <rand@plt+0x66e>
  400fd7:	b8 01 00 00 00       	mov    $0x1,%eax
  400fdc:	eb 3d                	jmp    40101b <rand@plt+0x6ab>
  400fde:	48 8d 45 f0          	lea    -0x10(%rbp),%rax
  400fe2:	48 83 f8 4e          	cmp    $0x4e,%rax
  400fe6:	75 07                	jne    400fef <rand@plt+0x67f>
  400fe8:	b8 00 00 00 00       	mov    $0x0,%eax
  400fed:	eb 2c                	jmp    40101b <rand@plt+0x6ab>
  400fef:	bf de 3b 40 00       	mov    $0x403bde,%edi
  400ff4:	b8 00 00 00 00       	mov    $0x0,%eax
  400ff9:	e8 e7 22 00 00       	callq  4032e5 <rand@plt+0x2975>
  400ffe:	48 8d 55 f0          	lea    -0x10(%rbp),%rdx
  401002:	48 8d 45 f0          	lea    -0x10(%rbp),%rax
  401006:	48 89 d6             	mov    %rdx,%rsi
  401009:	48 89 c7             	mov    %rax,%rdi
  40100c:	b8 00 00 00 00       	mov    $0x0,%eax
  401011:	e8 cf 22 00 00       	callq  4032e5 <rand@plt+0x2975>
  401016:	b8 00 00 00 00       	mov    $0x0,%eax
  40101b:	c9                   	leaveq 
  40101c:	c3                   	retq   
  40101d:	55                   	push   %rbp
  40101e:	48 89 e5             	mov    %rsp,%rbp
  401021:	bf 01 00 00 00       	mov    $0x1,%edi
  401026:	e8 35 f9 ff ff       	callq  400960 <exit@plt>
  40102b:	55                   	push   %rbp
  40102c:	48 89 e5             	mov    %rsp,%rbp
  40102f:	48 8b 05 f2 50 20 00 	mov    0x2050f2(%rip),%rax        # 606128 <stdin@@GLIBC_2.2.5+0x60>
  401036:	48 85 c0             	test   %rax,%rax
  401039:	75 43                	jne    40107e <rand@plt+0x70e>
  40103b:	bf 08 00 00 00       	mov    $0x8,%edi
  401040:	e8 cb f8 ff ff       	callq  400910 <malloc@plt>
  401045:	48 89 05 dc 50 20 00 	mov    %rax,0x2050dc(%rip)        # 606128 <stdin@@GLIBC_2.2.5+0x60>
  40104c:	48 8b 05 d5 50 20 00 	mov    0x2050d5(%rip),%rax        # 606128 <stdin@@GLIBC_2.2.5+0x60>
  401053:	48 85 c0             	test   %rax,%rax
  401056:	75 19                	jne    401071 <rand@plt+0x701>
  401058:	bf f0 3b 40 00       	mov    $0x403bf0,%edi
  40105d:	b8 00 00 00 00       	mov    $0x0,%eax
  401062:	e8 7e 22 00 00       	callq  4032e5 <rand@plt+0x2975>
  401067:	bf 01 00 00 00       	mov    $0x1,%edi
  40106c:	e8 ef f8 ff ff       	callq  400960 <exit@plt>
  401071:	48 8b 05 b0 50 20 00 	mov    0x2050b0(%rip),%rax        # 606128 <stdin@@GLIBC_2.2.5+0x60>
  401078:	c7 00 00 00 00 00    	movl   $0x0,(%rax)
  40107e:	48 8b 05 ab 50 20 00 	mov    0x2050ab(%rip),%rax        # 606130 <stdin@@GLIBC_2.2.5+0x68>
  401085:	48 85 c0             	test   %rax,%rax
  401088:	75 36                	jne    4010c0 <rand@plt+0x750>
  40108a:	bf c4 04 00 00       	mov    $0x4c4,%edi
  40108f:	e8 7c f8 ff ff       	callq  400910 <malloc@plt>
  401094:	48 89 05 95 50 20 00 	mov    %rax,0x205095(%rip)        # 606130 <stdin@@GLIBC_2.2.5+0x68>
  40109b:	48 8b 05 8e 50 20 00 	mov    0x20508e(%rip),%rax        # 606130 <stdin@@GLIBC_2.2.5+0x68>
  4010a2:	48 85 c0             	test   %rax,%rax
  4010a5:	75 19                	jne    4010c0 <rand@plt+0x750>
  4010a7:	bf f0 3b 40 00       	mov    $0x403bf0,%edi
  4010ac:	b8 00 00 00 00       	mov    $0x0,%eax
  4010b1:	e8 2f 22 00 00       	callq  4032e5 <rand@plt+0x2975>
  4010b6:	bf 01 00 00 00       	mov    $0x1,%edi
  4010bb:	e8 a0 f8 ff ff       	callq  400960 <exit@plt>
  4010c0:	bf ff 3b 40 00       	mov    $0x403bff,%edi
  4010c5:	b8 00 00 00 00       	mov    $0x0,%eax
  4010ca:	e8 16 22 00 00       	callq  4032e5 <rand@plt+0x2975>
  4010cf:	bf 0f 3c 40 00       	mov    $0x403c0f,%edi
  4010d4:	b8 00 00 00 00       	mov    $0x0,%eax
  4010d9:	e8 07 22 00 00       	callq  4032e5 <rand@plt+0x2975>
  4010de:	bf 1e 3c 40 00       	mov    $0x403c1e,%edi
  4010e3:	b8 00 00 00 00       	mov    $0x0,%eax
  4010e8:	e8 f8 21 00 00       	callq  4032e5 <rand@plt+0x2975>
  4010ed:	bf 2e 3c 40 00       	mov    $0x403c2e,%edi
  4010f2:	b8 00 00 00 00       	mov    $0x0,%eax
  4010f7:	e8 e9 21 00 00       	callq  4032e5 <rand@plt+0x2975>
  4010fc:	48 8b 05 ed 4f 20 00 	mov    0x204fed(%rip),%rax        # 6060f0 <stdin@@GLIBC_2.2.5+0x28>
  401103:	48 89 c7             	mov    %rax,%rdi
  401106:	e8 5c fe ff ff       	callq  400f67 <rand@plt+0x5f7>
  40110b:	48 8b 05 de 4f 20 00 	mov    0x204fde(%rip),%rax        # 6060f0 <stdin@@GLIBC_2.2.5+0x28>
  401112:	8b 00                	mov    (%rax),%eax
  401114:	83 f8 02             	cmp    $0x2,%eax
  401117:	74 1f                	je     401138 <rand@plt+0x7c8>
  401119:	83 f8 02             	cmp    $0x2,%eax
  40111c:	7f 07                	jg     401125 <rand@plt+0x7b5>
  40111e:	83 f8 01             	cmp    $0x1,%eax
  401121:	74 0e                	je     401131 <rand@plt+0x7c1>
  401123:	eb 28                	jmp    40114d <rand@plt+0x7dd>
  401125:	83 f8 03             	cmp    $0x3,%eax
  401128:	74 15                	je     40113f <rand@plt+0x7cf>
  40112a:	83 f8 04             	cmp    $0x4,%eax
  40112d:	74 17                	je     401146 <rand@plt+0x7d6>
  40112f:	eb 1c                	jmp    40114d <rand@plt+0x7dd>
  401131:	e8 76 01 00 00       	callq  4012ac <rand@plt+0x93c>
  401136:	eb 25                	jmp    40115d <rand@plt+0x7ed>
  401138:	e8 da 02 00 00       	callq  401417 <rand@plt+0xaa7>
  40113d:	eb 1e                	jmp    40115d <rand@plt+0x7ed>
  40113f:	e8 1e 00 00 00       	callq  401162 <rand@plt+0x7f2>
  401144:	eb 17                	jmp    40115d <rand@plt+0x7ed>
  401146:	e8 02 fc ff ff       	callq  400d4d <rand@plt+0x3dd>
  40114b:	eb 10                	jmp    40115d <rand@plt+0x7ed>
  40114d:	bf 3e 3c 40 00       	mov    $0x403c3e,%edi
  401152:	b8 00 00 00 00       	mov    $0x0,%eax
  401157:	e8 89 21 00 00       	callq  4032e5 <rand@plt+0x2975>
  40115c:	90                   	nop
  40115d:	e9 5e ff ff ff       	jmpq   4010c0 <rand@plt+0x750>
  401162:	55                   	push   %rbp
  401163:	48 89 e5             	mov    %rsp,%rbp
  401166:	48 81 ec a0 00 00 00 	sub    $0xa0,%rsp
  40116d:	64 48 8b 04 25 28 00 	mov    %fs:0x28,%rax
  401174:	00 00 
  401176:	48 89 45 f8          	mov    %rax,-0x8(%rbp)
  40117a:	31 c0                	xor    %eax,%eax
  40117c:	bf 58 3c 40 00       	mov    $0x403c58,%edi
  401181:	b8 00 00 00 00       	mov    $0x0,%eax
  401186:	e8 5a 21 00 00       	callq  4032e5 <rand@plt+0x2975>
  40118b:	bf 83 3c 40 00       	mov    $0x403c83,%edi
  401190:	b8 00 00 00 00       	mov    $0x0,%eax
  401195:	e8 4b 21 00 00       	callq  4032e5 <rand@plt+0x2975>
  40119a:	48 8b 15 27 4f 20 00 	mov    0x204f27(%rip),%rdx        # 6060c8 <stdin@@GLIBC_2.2.5>
  4011a1:	48 8d 85 60 ff ff ff 	lea    -0xa0(%rbp),%rax
  4011a8:	be 03 00 00 00       	mov    $0x3,%esi
  4011ad:	48 89 c7             	mov    %rax,%rdi
  4011b0:	e8 1b f7 ff ff       	callq  4008d0 <fgets@plt>
  4011b5:	48 8d 85 60 ff ff ff 	lea    -0xa0(%rbp),%rax
  4011bc:	be 03 00 00 00       	mov    $0x3,%esi
  4011c1:	48 89 c7             	mov    %rax,%rdi
  4011c4:	b8 00 00 00 00       	mov    $0x0,%eax
  4011c9:	e8 62 f9 ff ff       	callq  400b30 <rand@plt+0x1c0>
  4011ce:	bf 98 3c 40 00       	mov    $0x403c98,%edi
  4011d3:	b8 00 00 00 00       	mov    $0x0,%eax
  4011d8:	e8 08 21 00 00       	callq  4032e5 <rand@plt+0x2975>
  4011dd:	48 8b 15 e4 4e 20 00 	mov    0x204ee4(%rip),%rdx        # 6060c8 <stdin@@GLIBC_2.2.5>
  4011e4:	48 8d 85 70 ff ff ff 	lea    -0x90(%rbp),%rax
  4011eb:	be 14 00 00 00       	mov    $0x14,%esi
  4011f0:	48 89 c7             	mov    %rax,%rdi
  4011f3:	e8 d8 f6 ff ff       	callq  4008d0 <fgets@plt>
  4011f8:	48 8d 85 70 ff ff ff 	lea    -0x90(%rbp),%rax
  4011ff:	be 14 00 00 00       	mov    $0x14,%esi
  401204:	48 89 c7             	mov    %rax,%rdi
  401207:	b8 00 00 00 00       	mov    $0x0,%eax
  40120c:	e8 1f f9 ff ff       	callq  400b30 <rand@plt+0x1c0>
  401211:	bf a9 3c 40 00       	mov    $0x403ca9,%edi
  401216:	b8 00 00 00 00       	mov    $0x0,%eax
  40121b:	e8 c5 20 00 00       	callq  4032e5 <rand@plt+0x2975>
  401220:	48 8b 15 a1 4e 20 00 	mov    0x204ea1(%rip),%rdx        # 6060c8 <stdin@@GLIBC_2.2.5>
  401227:	48 8d 45 90          	lea    -0x70(%rbp),%rax
  40122b:	be 64 00 00 00       	mov    $0x64,%esi
  401230:	48 89 c7             	mov    %rax,%rdi
  401233:	e8 98 f6 ff ff       	callq  4008d0 <fgets@plt>
  401238:	48 8d 45 90          	lea    -0x70(%rbp),%rax
  40123c:	be 64 00 00 00       	mov    $0x64,%esi
  401241:	48 89 c7             	mov    %rax,%rdi
  401244:	b8 00 00 00 00       	mov    $0x0,%eax
  401249:	e8 e2 f8 ff ff       	callq  400b30 <rand@plt+0x1c0>
  40124e:	48 8d 85 60 ff ff ff 	lea    -0xa0(%rbp),%rax
  401255:	48 89 c7             	mov    %rax,%rdi
  401258:	b8 00 00 00 00       	mov    $0x0,%eax
  40125d:	e8 83 20 00 00       	callq  4032e5 <rand@plt+0x2975>
  401262:	48 8d 85 70 ff ff ff 	lea    -0x90(%rbp),%rax
  401269:	48 89 c6             	mov    %rax,%rsi
  40126c:	bf be 3c 40 00       	mov    $0x403cbe,%edi
  401271:	b8 00 00 00 00       	mov    $0x0,%eax
  401276:	e8 6a 20 00 00       	callq  4032e5 <rand@plt+0x2975>
  40127b:	48 8d 45 90          	lea    -0x70(%rbp),%rax
  40127f:	48 89 c6             	mov    %rax,%rsi
  401282:	bf c3 3c 40 00       	mov    $0x403cc3,%edi
  401287:	b8 00 00 00 00       	mov    $0x0,%eax
  40128c:	e8 54 20 00 00       	callq  4032e5 <rand@plt+0x2975>
  401291:	b8 01 00 00 00       	mov    $0x1,%eax
  401296:	48 8b 4d f8          	mov    -0x8(%rbp),%rcx
  40129a:	64 48 33 0c 25 28 00 	xor    %fs:0x28,%rcx
  4012a1:	00 00 
  4012a3:	74 05                	je     4012aa <rand@plt+0x93a>
  4012a5:	e8 e6 f5 ff ff       	callq  400890 <__stack_chk_fail@plt>
  4012aa:	c9                   	leaveq 
  4012ab:	c3                   	retq   
  4012ac:	55                   	push   %rbp
  4012ad:	48 89 e5             	mov    %rsp,%rbp
  4012b0:	bf c7 3c 40 00       	mov    $0x403cc7,%edi
  4012b5:	b8 00 00 00 00       	mov    $0x0,%eax
  4012ba:	e8 26 20 00 00       	callq  4032e5 <rand@plt+0x2975>
  4012bf:	48 8b 05 62 4e 20 00 	mov    0x204e62(%rip),%rax        # 606128 <stdin@@GLIBC_2.2.5+0x60>
  4012c6:	8b 00                	mov    (%rax),%eax
  4012c8:	83 f8 09             	cmp    $0x9,%eax
  4012cb:	7e 19                	jle    4012e6 <rand@plt+0x976>
  4012cd:	bf d4 3c 40 00       	mov    $0x403cd4,%edi
  4012d2:	b8 00 00 00 00       	mov    $0x0,%eax
  4012d7:	e8 09 20 00 00       	callq  4032e5 <rand@plt+0x2975>
  4012dc:	b8 01 00 00 00       	mov    $0x1,%eax
  4012e1:	e9 2f 01 00 00       	jmpq   401415 <rand@plt+0xaa5>
  4012e6:	48 8b 05 3b 4e 20 00 	mov    0x204e3b(%rip),%rax        # 606128 <stdin@@GLIBC_2.2.5+0x60>
  4012ed:	8b 00                	mov    (%rax),%eax
  4012ef:	83 c0 01             	add    $0x1,%eax
  4012f2:	89 c6                	mov    %eax,%esi
  4012f4:	bf e5 3c 40 00       	mov    $0x403ce5,%edi
  4012f9:	b8 00 00 00 00       	mov    $0x0,%eax
  4012fe:	e8 e2 1f 00 00       	callq  4032e5 <rand@plt+0x2975>
  401303:	48 8b 05 b6 4d 20 00 	mov    0x204db6(%rip),%rax        # 6060c0 <stdout@@GLIBC_2.2.5>
  40130a:	48 89 c7             	mov    %rax,%rdi
  40130d:	e8 0e f6 ff ff       	callq  400920 <fflush@plt>
  401312:	bf f2 3c 40 00       	mov    $0x403cf2,%edi
  401317:	b8 00 00 00 00       	mov    $0x0,%eax
  40131c:	e8 c4 1f 00 00       	callq  4032e5 <rand@plt+0x2975>
  401321:	48 8b 15 a0 4d 20 00 	mov    0x204da0(%rip),%rdx        # 6060c8 <stdin@@GLIBC_2.2.5>
  401328:	48 8b 0d 01 4e 20 00 	mov    0x204e01(%rip),%rcx        # 606130 <stdin@@GLIBC_2.2.5+0x68>
  40132f:	48 8b 05 f2 4d 20 00 	mov    0x204df2(%rip),%rax        # 606128 <stdin@@GLIBC_2.2.5+0x60>
  401336:	8b 00                	mov    (%rax),%eax
  401338:	48 98                	cltq   
  40133a:	48 6b c0 7a          	imul   $0x7a,%rax,%rax
  40133e:	48 01 c8             	add    %rcx,%rax
  401341:	be 14 00 00 00       	mov    $0x14,%esi
  401346:	48 89 c7             	mov    %rax,%rdi
  401349:	e8 82 f5 ff ff       	callq  4008d0 <fgets@plt>
  40134e:	48 8b 15 db 4d 20 00 	mov    0x204ddb(%rip),%rdx        # 606130 <stdin@@GLIBC_2.2.5+0x68>
  401355:	48 8b 05 cc 4d 20 00 	mov    0x204dcc(%rip),%rax        # 606128 <stdin@@GLIBC_2.2.5+0x60>
  40135c:	8b 00                	mov    (%rax),%eax
  40135e:	48 98                	cltq   
  401360:	48 6b c0 7a          	imul   $0x7a,%rax,%rax
  401364:	48 01 d0             	add    %rdx,%rax
  401367:	be 14 00 00 00       	mov    $0x14,%esi
  40136c:	48 89 c7             	mov    %rax,%rdi
  40136f:	b8 00 00 00 00       	mov    $0x0,%eax
  401374:	e8 b7 f7 ff ff       	callq  400b30 <rand@plt+0x1c0>
  401379:	bf 00 3d 40 00       	mov    $0x403d00,%edi
  40137e:	b8 00 00 00 00       	mov    $0x0,%eax
  401383:	e8 5d 1f 00 00       	callq  4032e5 <rand@plt+0x2975>
  401388:	48 8b 05 31 4d 20 00 	mov    0x204d31(%rip),%rax        # 6060c0 <stdout@@GLIBC_2.2.5>
  40138f:	48 89 c7             	mov    %rax,%rdi
  401392:	e8 89 f5 ff ff       	callq  400920 <fflush@plt>
  401397:	48 8b 05 2a 4d 20 00 	mov    0x204d2a(%rip),%rax        # 6060c8 <stdin@@GLIBC_2.2.5>
  40139e:	48 8b 0d 8b 4d 20 00 	mov    0x204d8b(%rip),%rcx        # 606130 <stdin@@GLIBC_2.2.5+0x68>
  4013a5:	48 8b 15 7c 4d 20 00 	mov    0x204d7c(%rip),%rdx        # 606128 <stdin@@GLIBC_2.2.5+0x60>
  4013ac:	8b 12                	mov    (%rdx),%edx
  4013ae:	48 63 d2             	movslq %edx,%rdx
  4013b1:	48 6b d2 7a          	imul   $0x7a,%rdx,%rdx
  4013b5:	48 01 ca             	add    %rcx,%rdx
  4013b8:	48 8d 4a 15          	lea    0x15(%rdx),%rcx
  4013bc:	48 89 c2             	mov    %rax,%rdx
  4013bf:	be 64 00 00 00       	mov    $0x64,%esi
  4013c4:	48 89 cf             	mov    %rcx,%rdi
  4013c7:	e8 04 f5 ff ff       	callq  4008d0 <fgets@plt>
  4013cc:	48 8b 15 5d 4d 20 00 	mov    0x204d5d(%rip),%rdx        # 606130 <stdin@@GLIBC_2.2.5+0x68>
  4013d3:	48 8b 05 4e 4d 20 00 	mov    0x204d4e(%rip),%rax        # 606128 <stdin@@GLIBC_2.2.5+0x60>
  4013da:	8b 00                	mov    (%rax),%eax
  4013dc:	48 98                	cltq   
  4013de:	48 6b c0 7a          	imul   $0x7a,%rax,%rax
  4013e2:	48 01 d0             	add    %rdx,%rax
  4013e5:	48 83 c0 15          	add    $0x15,%rax
  4013e9:	be 64 00 00 00       	mov    $0x64,%esi
  4013ee:	48 89 c7             	mov    %rax,%rdi
  4013f1:	b8 00 00 00 00       	mov    $0x0,%eax
  4013f6:	e8 35 f7 ff ff       	callq  400b30 <rand@plt+0x1c0>
  4013fb:	48 8b 05 26 4d 20 00 	mov    0x204d26(%rip),%rax        # 606128 <stdin@@GLIBC_2.2.5+0x60>
  401402:	48 8b 15 1f 4d 20 00 	mov    0x204d1f(%rip),%rdx        # 606128 <stdin@@GLIBC_2.2.5+0x60>
  401409:	8b 12                	mov    (%rdx),%edx
  40140b:	83 c2 01             	add    $0x1,%edx
  40140e:	89 10                	mov    %edx,(%rax)
  401410:	b8 00 00 00 00       	mov    $0x0,%eax
  401415:	5d                   	pop    %rbp
  401416:	c3                   	retq   
  401417:	55                   	push   %rbp
  401418:	48 89 e5             	mov    %rsp,%rbp
  40141b:	48 83 ec 10          	sub    $0x10,%rsp
  40141f:	bf 11 3d 40 00       	mov    $0x403d11,%edi
  401424:	b8 00 00 00 00       	mov    $0x0,%eax
  401429:	e8 b7 1e 00 00       	callq  4032e5 <rand@plt+0x2975>
  40142e:	48 8b 05 f3 4c 20 00 	mov    0x204cf3(%rip),%rax        # 606128 <stdin@@GLIBC_2.2.5+0x60>
  401435:	8b 00                	mov    (%rax),%eax
  401437:	85 c0                	test   %eax,%eax
  401439:	75 19                	jne    401454 <rand@plt+0xae4>
  40143b:	bf 1d 3d 40 00       	mov    $0x403d1d,%edi
  401440:	b8 00 00 00 00       	mov    $0x0,%eax
  401445:	e8 9b 1e 00 00       	callq  4032e5 <rand@plt+0x2975>
  40144a:	b8 01 00 00 00       	mov    $0x1,%eax
  40144f:	e9 a7 00 00 00       	jmpq   4014fb <rand@plt+0xb8b>
  401454:	bf 30 3d 40 00       	mov    $0x403d30,%edi
  401459:	b8 00 00 00 00       	mov    $0x0,%eax
  40145e:	e8 82 1e 00 00       	callq  4032e5 <rand@plt+0x2975>
  401463:	c7 45 fc 00 00 00 00 	movl   $0x0,-0x4(%rbp)
  40146a:	eb 78                	jmp    4014e4 <rand@plt+0xb74>
  40146c:	8b 45 fc             	mov    -0x4(%rbp),%eax
  40146f:	83 c0 01             	add    $0x1,%eax
  401472:	89 c6                	mov    %eax,%esi
  401474:	bf 7b 3d 40 00       	mov    $0x403d7b,%edi
  401479:	b8 00 00 00 00       	mov    $0x0,%eax
  40147e:	e8 62 1e 00 00       	callq  4032e5 <rand@plt+0x2975>
  401483:	48 8b 15 a6 4c 20 00 	mov    0x204ca6(%rip),%rdx        # 606130 <stdin@@GLIBC_2.2.5+0x68>
  40148a:	8b 45 fc             	mov    -0x4(%rbp),%eax
  40148d:	48 98                	cltq   
  40148f:	48 6b c0 7a          	imul   $0x7a,%rax,%rax
  401493:	48 01 d0             	add    %rdx,%rax
  401496:	48 89 c6             	mov    %rax,%rsi
  401499:	bf 83 3d 40 00       	mov    $0x403d83,%edi
  40149e:	b8 00 00 00 00       	mov    $0x0,%eax
  4014a3:	e8 3d 1e 00 00       	callq  4032e5 <rand@plt+0x2975>
  4014a8:	48 8b 15 81 4c 20 00 	mov    0x204c81(%rip),%rdx        # 606130 <stdin@@GLIBC_2.2.5+0x68>
  4014af:	8b 45 fc             	mov    -0x4(%rbp),%eax
  4014b2:	48 98                	cltq   
  4014b4:	48 6b c0 7a          	imul   $0x7a,%rax,%rax
  4014b8:	48 01 d0             	add    %rdx,%rax
  4014bb:	48 83 c0 15          	add    $0x15,%rax
  4014bf:	48 89 c6             	mov    %rax,%rsi
  4014c2:	bf 93 3d 40 00       	mov    $0x403d93,%edi
  4014c7:	b8 00 00 00 00       	mov    $0x0,%eax
  4014cc:	e8 14 1e 00 00       	callq  4032e5 <rand@plt+0x2975>
  4014d1:	bf 30 3d 40 00       	mov    $0x403d30,%edi
  4014d6:	b8 00 00 00 00       	mov    $0x0,%eax
  4014db:	e8 05 1e 00 00       	callq  4032e5 <rand@plt+0x2975>
  4014e0:	83 45 fc 01          	addl   $0x1,-0x4(%rbp)
  4014e4:	48 8b 05 3d 4c 20 00 	mov    0x204c3d(%rip),%rax        # 606128 <stdin@@GLIBC_2.2.5+0x60>
  4014eb:	8b 00                	mov    (%rax),%eax
  4014ed:	3b 45 fc             	cmp    -0x4(%rbp),%eax
  4014f0:	0f 8f 76 ff ff ff    	jg     40146c <rand@plt+0xafc>
  4014f6:	b8 00 00 00 00       	mov    $0x0,%eax
  4014fb:	c9                   	leaveq 
  4014fc:	c3                   	retq   
  4014fd:	55                   	push   %rbp
  4014fe:	48 89 e5             	mov    %rsp,%rbp
  401501:	48 83 ec 10          	sub    $0x10,%rsp
  401505:	48 89 7d f8          	mov    %rdi,-0x8(%rbp)
  401509:	48 8b 45 f8          	mov    -0x8(%rbp),%rax
  40150d:	48 89 c6             	mov    %rax,%rsi
  401510:	bf a8 3d 40 00       	mov    $0x403da8,%edi
  401515:	b8 00 00 00 00       	mov    $0x0,%eax
  40151a:	e8 c6 1d 00 00       	callq  4032e5 <rand@plt+0x2975>
  40151f:	bf af 3d 40 00       	mov    $0x403daf,%edi
  401524:	b8 00 00 00 00       	mov    $0x0,%eax
  401529:	e8 b7 1d 00 00       	callq  4032e5 <rand@plt+0x2975>
  40152e:	c9                   	leaveq 
  40152f:	c3                   	retq   
  401530:	55                   	push   %rbp
  401531:	48 89 e5             	mov    %rsp,%rbp
  401534:	48 83 ec 10          	sub    $0x10,%rsp
  401538:	48 89 7d f8          	mov    %rdi,-0x8(%rbp)
  40153c:	48 8b 45 f8          	mov    -0x8(%rbp),%rax
  401540:	48 89 c6             	mov    %rax,%rsi
  401543:	bf a8 3d 40 00       	mov    $0x403da8,%edi
  401548:	b8 00 00 00 00       	mov    $0x0,%eax
  40154d:	e8 93 1d 00 00       	callq  4032e5 <rand@plt+0x2975>
  401552:	bf b9 3d 40 00       	mov    $0x403db9,%edi
  401557:	b8 00 00 00 00       	mov    $0x0,%eax
  40155c:	e8 84 1d 00 00       	callq  4032e5 <rand@plt+0x2975>
  401561:	c9                   	leaveq 
  401562:	c3                   	retq   
  401563:	55                   	push   %rbp
  401564:	48 89 e5             	mov    %rsp,%rbp
  401567:	48 83 ec 10          	sub    $0x10,%rsp
  40156b:	bf c5 3d 40 00       	mov    $0x403dc5,%edi
  401570:	b8 00 00 00 00       	mov    $0x0,%eax
  401575:	e8 6b 1d 00 00       	callq  4032e5 <rand@plt+0x2975>
  40157a:	48 8b 05 67 4b 20 00 	mov    0x204b67(%rip),%rax        # 6060e8 <stdin@@GLIBC_2.2.5+0x20>
  401581:	8b 00                	mov    (%rax),%eax
  401583:	85 c0                	test   %eax,%eax
  401585:	75 14                	jne    40159b <rand@plt+0xc2b>
  401587:	bf d2 3d 40 00       	mov    $0x403dd2,%edi
  40158c:	b8 00 00 00 00       	mov    $0x0,%eax
  401591:	e8 4f 1d 00 00       	callq  4032e5 <rand@plt+0x2975>
  401596:	e9 c2 01 00 00       	jmpq   40175d <rand@plt+0xded>
  40159b:	bf e0 3d 40 00       	mov    $0x403de0,%edi
  4015a0:	b8 00 00 00 00       	mov    $0x0,%eax
  4015a5:	e8 3b 1d 00 00       	callq  4032e5 <rand@plt+0x2975>
  4015aa:	c7 45 f4 00 00 00 00 	movl   $0x0,-0xc(%rbp)
  4015b1:	e9 90 00 00 00       	jmpq   401646 <rand@plt+0xcd6>
  4015b6:	8b 45 f4             	mov    -0xc(%rbp),%eax
  4015b9:	83 c0 01             	add    $0x1,%eax
  4015bc:	89 45 f8             	mov    %eax,-0x8(%rbp)
  4015bf:	48 8b 15 12 4b 20 00 	mov    0x204b12(%rip),%rdx        # 6060d8 <stdin@@GLIBC_2.2.5+0x10>
  4015c6:	8b 45 f4             	mov    -0xc(%rbp),%eax
  4015c9:	48 98                	cltq   
  4015cb:	48 c1 e0 03          	shl    $0x3,%rax
  4015cf:	48 89 c1             	mov    %rax,%rcx
  4015d2:	48 c1 e1 05          	shl    $0x5,%rcx
  4015d6:	48 29 c1             	sub    %rax,%rcx
  4015d9:	48 89 c8             	mov    %rcx,%rax
  4015dc:	48 01 d0             	add    %rdx,%rax
  4015df:	48 89 c2             	mov    %rax,%rdx
  4015e2:	8b 45 f8             	mov    -0x8(%rbp),%eax
  4015e5:	89 c6                	mov    %eax,%esi
  4015e7:	bf 17 3e 40 00       	mov    $0x403e17,%edi
  4015ec:	b8 00 00 00 00       	mov    $0x0,%eax
  4015f1:	e8 ef 1c 00 00       	callq  4032e5 <rand@plt+0x2975>
  4015f6:	48 8b 15 db 4a 20 00 	mov    0x204adb(%rip),%rdx        # 6060d8 <stdin@@GLIBC_2.2.5+0x10>
  4015fd:	8b 45 f4             	mov    -0xc(%rbp),%eax
  401600:	48 98                	cltq   
  401602:	48 c1 e0 03          	shl    $0x3,%rax
  401606:	48 89 c1             	mov    %rax,%rcx
  401609:	48 c1 e1 05          	shl    $0x5,%rcx
  40160d:	48 29 c1             	sub    %rax,%rcx
  401610:	48 89 c8             	mov    %rcx,%rax
  401613:	48 01 d0             	add    %rdx,%rax
  401616:	48 8b 90 f0 00 00 00 	mov    0xf0(%rax),%rdx
  40161d:	48 8b 0d b4 4a 20 00 	mov    0x204ab4(%rip),%rcx        # 6060d8 <stdin@@GLIBC_2.2.5+0x10>
  401624:	8b 45 f4             	mov    -0xc(%rbp),%eax
  401627:	48 98                	cltq   
  401629:	48 c1 e0 03          	shl    $0x3,%rax
  40162d:	48 89 c6             	mov    %rax,%rsi
  401630:	48 c1 e6 05          	shl    $0x5,%rsi
  401634:	48 29 c6             	sub    %rax,%rsi
  401637:	48 89 f0             	mov    %rsi,%rax
  40163a:	48 01 c8             	add    %rcx,%rax
  40163d:	48 89 c7             	mov    %rax,%rdi
  401640:	ff d2                	callq  *%rdx
  401642:	83 45 f4 01          	addl   $0x1,-0xc(%rbp)
  401646:	48 8b 05 9b 4a 20 00 	mov    0x204a9b(%rip),%rax        # 6060e8 <stdin@@GLIBC_2.2.5+0x20>
  40164d:	8b 00                	mov    (%rax),%eax
  40164f:	3b 45 f4             	cmp    -0xc(%rbp),%eax
  401652:	0f 8f 5e ff ff ff    	jg     4015b6 <rand@plt+0xc46>
  401658:	bf 28 3e 40 00       	mov    $0x403e28,%edi
  40165d:	b8 00 00 00 00       	mov    $0x0,%eax
  401662:	e8 7e 1c 00 00       	callq  4032e5 <rand@plt+0x2975>
  401667:	48 8b 05 82 4a 20 00 	mov    0x204a82(%rip),%rax        # 6060f0 <stdin@@GLIBC_2.2.5+0x28>
  40166e:	48 89 c7             	mov    %rax,%rdi
  401671:	e8 f1 f8 ff ff       	callq  400f67 <rand@plt+0x5f7>
  401676:	48 8b 05 73 4a 20 00 	mov    0x204a73(%rip),%rax        # 6060f0 <stdin@@GLIBC_2.2.5+0x28>
  40167d:	8b 00                	mov    (%rax),%eax
  40167f:	83 e8 01             	sub    $0x1,%eax
  401682:	89 45 fc             	mov    %eax,-0x4(%rbp)
  401685:	48 8b 05 5c 4a 20 00 	mov    0x204a5c(%rip),%rax        # 6060e8 <stdin@@GLIBC_2.2.5+0x20>
  40168c:	8b 00                	mov    (%rax),%eax
  40168e:	3b 45 fc             	cmp    -0x4(%rbp),%eax
  401691:	7d 14                	jge    4016a7 <rand@plt+0xd37>
  401693:	bf 64 3e 40 00       	mov    $0x403e64,%edi
  401698:	b8 00 00 00 00       	mov    $0x0,%eax
  40169d:	e8 43 1c 00 00       	callq  4032e5 <rand@plt+0x2975>
  4016a2:	e9 b6 00 00 00       	jmpq   40175d <rand@plt+0xded>
  4016a7:	48 8b 15 2a 4a 20 00 	mov    0x204a2a(%rip),%rdx        # 6060d8 <stdin@@GLIBC_2.2.5+0x10>
  4016ae:	8b 45 fc             	mov    -0x4(%rbp),%eax
  4016b1:	48 98                	cltq   
  4016b3:	48 c1 e0 03          	shl    $0x3,%rax
  4016b7:	48 89 c1             	mov    %rax,%rcx
  4016ba:	48 c1 e1 05          	shl    $0x5,%rcx
  4016be:	48 29 c1             	sub    %rax,%rcx
  4016c1:	48 89 c8             	mov    %rcx,%rax
  4016c4:	48 01 d0             	add    %rdx,%rax
  4016c7:	48 8b 80 f0 00 00 00 	mov    0xf0(%rax),%rax
  4016ce:	48 3d 30 15 40 00    	cmp    $0x401530,%rax
  4016d4:	75 2d                	jne    401703 <rand@plt+0xd93>
  4016d6:	48 8b 15 fb 49 20 00 	mov    0x2049fb(%rip),%rdx        # 6060d8 <stdin@@GLIBC_2.2.5+0x10>
  4016dd:	8b 45 fc             	mov    -0x4(%rbp),%eax
  4016e0:	48 98                	cltq   
  4016e2:	48 c1 e0 03          	shl    $0x3,%rax
  4016e6:	48 89 c1             	mov    %rax,%rcx
  4016e9:	48 c1 e1 05          	shl    $0x5,%rcx
  4016ed:	48 29 c1             	sub    %rax,%rcx
  4016f0:	48 89 c8             	mov    %rcx,%rax
  4016f3:	48 01 d0             	add    %rdx,%rax
  4016f6:	48 c7 80 f0 00 00 00 	movq   $0x4014fd,0xf0(%rax)
  4016fd:	fd 14 40 00 
  401701:	eb 5a                	jmp    40175d <rand@plt+0xded>
  401703:	48 8b 15 ce 49 20 00 	mov    0x2049ce(%rip),%rdx        # 6060d8 <stdin@@GLIBC_2.2.5+0x10>
  40170a:	8b 45 fc             	mov    -0x4(%rbp),%eax
  40170d:	48 98                	cltq   
  40170f:	48 c1 e0 03          	shl    $0x3,%rax
  401713:	48 89 c1             	mov    %rax,%rcx
  401716:	48 c1 e1 05          	shl    $0x5,%rcx
  40171a:	48 29 c1             	sub    %rax,%rcx
  40171d:	48 89 c8             	mov    %rcx,%rax
  401720:	48 01 d0             	add    %rdx,%rax
  401723:	48 8b 80 f0 00 00 00 	mov    0xf0(%rax),%rax
  40172a:	48 3d fd 14 40 00    	cmp    $0x4014fd,%rax
  401730:	75 2b                	jne    40175d <rand@plt+0xded>
  401732:	48 8b 15 9f 49 20 00 	mov    0x20499f(%rip),%rdx        # 6060d8 <stdin@@GLIBC_2.2.5+0x10>
  401739:	8b 45 fc             	mov    -0x4(%rbp),%eax
  40173c:	48 98                	cltq   
  40173e:	48 c1 e0 03          	shl    $0x3,%rax
  401742:	48 89 c1             	mov    %rax,%rcx
  401745:	48 c1 e1 05          	shl    $0x5,%rcx
  401749:	48 29 c1             	sub    %rax,%rcx
  40174c:	48 89 c8             	mov    %rcx,%rax
  40174f:	48 01 d0             	add    %rdx,%rax
  401752:	48 c7 80 f0 00 00 00 	movq   $0x401530,0xf0(%rax)
  401759:	30 15 40 00 
  40175d:	b8 00 00 00 00       	mov    $0x0,%eax
  401762:	c9                   	leaveq 
  401763:	c3                   	retq   
  401764:	55                   	push   %rbp
  401765:	48 89 e5             	mov    %rsp,%rbp
  401768:	48 8b 05 69 49 20 00 	mov    0x204969(%rip),%rax        # 6060d8 <stdin@@GLIBC_2.2.5+0x10>
  40176f:	48 85 c0             	test   %rax,%rax
  401772:	75 36                	jne    4017aa <rand@plt+0xe3a>
  401774:	bf e8 02 00 00       	mov    $0x2e8,%edi
  401779:	e8 92 f1 ff ff       	callq  400910 <malloc@plt>
  40177e:	48 89 05 53 49 20 00 	mov    %rax,0x204953(%rip)        # 6060d8 <stdin@@GLIBC_2.2.5+0x10>
  401785:	48 8b 05 4c 49 20 00 	mov    0x20494c(%rip),%rax        # 6060d8 <stdin@@GLIBC_2.2.5+0x10>
  40178c:	48 85 c0             	test   %rax,%rax
  40178f:	75 19                	jne    4017aa <rand@plt+0xe3a>
  401791:	bf 6c 3e 40 00       	mov    $0x403e6c,%edi
  401796:	b8 00 00 00 00       	mov    $0x0,%eax
  40179b:	e8 45 1b 00 00       	callq  4032e5 <rand@plt+0x2975>
  4017a0:	bf 01 00 00 00       	mov    $0x1,%edi
  4017a5:	e8 b6 f1 ff ff       	callq  400960 <exit@plt>
  4017aa:	48 8b 05 37 49 20 00 	mov    0x204937(%rip),%rax        # 6060e8 <stdin@@GLIBC_2.2.5+0x20>
  4017b1:	48 85 c0             	test   %rax,%rax
  4017b4:	75 43                	jne    4017f9 <rand@plt+0xe89>
  4017b6:	bf 04 00 00 00       	mov    $0x4,%edi
  4017bb:	e8 50 f1 ff ff       	callq  400910 <malloc@plt>
  4017c0:	48 89 05 21 49 20 00 	mov    %rax,0x204921(%rip)        # 6060e8 <stdin@@GLIBC_2.2.5+0x20>
  4017c7:	48 8b 05 1a 49 20 00 	mov    0x20491a(%rip),%rax        # 6060e8 <stdin@@GLIBC_2.2.5+0x20>
  4017ce:	c7 00 00 00 00 00    	movl   $0x0,(%rax)
  4017d4:	48 8b 05 0d 49 20 00 	mov    0x20490d(%rip),%rax        # 6060e8 <stdin@@GLIBC_2.2.5+0x20>
  4017db:	48 85 c0             	test   %rax,%rax
  4017de:	75 19                	jne    4017f9 <rand@plt+0xe89>
  4017e0:	bf 6c 3e 40 00       	mov    $0x403e6c,%edi
  4017e5:	b8 00 00 00 00       	mov    $0x0,%eax
  4017ea:	e8 f6 1a 00 00       	callq  4032e5 <rand@plt+0x2975>
  4017ef:	bf 01 00 00 00       	mov    $0x1,%edi
  4017f4:	e8 67 f1 ff ff       	callq  400960 <exit@plt>
  4017f9:	bf 7b 3e 40 00       	mov    $0x403e7b,%edi
  4017fe:	b8 00 00 00 00       	mov    $0x0,%eax
  401803:	e8 dd 1a 00 00       	callq  4032e5 <rand@plt+0x2975>
  401808:	bf 92 3e 40 00       	mov    $0x403e92,%edi
  40180d:	b8 00 00 00 00       	mov    $0x0,%eax
  401812:	e8 ce 1a 00 00       	callq  4032e5 <rand@plt+0x2975>
  401817:	bf a9 3e 40 00       	mov    $0x403ea9,%edi
  40181c:	b8 00 00 00 00       	mov    $0x0,%eax
  401821:	e8 bf 1a 00 00       	callq  4032e5 <rand@plt+0x2975>
  401826:	bf c0 3e 40 00       	mov    $0x403ec0,%edi
  40182b:	b8 00 00 00 00       	mov    $0x0,%eax
  401830:	e8 b0 1a 00 00       	callq  4032e5 <rand@plt+0x2975>
  401835:	bf d9 3e 40 00       	mov    $0x403ed9,%edi
  40183a:	b8 00 00 00 00       	mov    $0x0,%eax
  40183f:	e8 a1 1a 00 00       	callq  4032e5 <rand@plt+0x2975>
  401844:	bf f2 3e 40 00       	mov    $0x403ef2,%edi
  401849:	b8 00 00 00 00       	mov    $0x0,%eax
  40184e:	e8 92 1a 00 00       	callq  4032e5 <rand@plt+0x2975>
  401853:	bf 0a 3f 40 00       	mov    $0x403f0a,%edi
  401858:	b8 00 00 00 00       	mov    $0x0,%eax
  40185d:	e8 83 1a 00 00       	callq  4032e5 <rand@plt+0x2975>
  401862:	bf 16 3f 40 00       	mov    $0x403f16,%edi
  401867:	b8 00 00 00 00       	mov    $0x0,%eax
  40186c:	e8 74 1a 00 00       	callq  4032e5 <rand@plt+0x2975>
  401871:	48 8b 05 78 48 20 00 	mov    0x204878(%rip),%rax        # 6060f0 <stdin@@GLIBC_2.2.5+0x28>
  401878:	48 89 c7             	mov    %rax,%rdi
  40187b:	e8 e7 f6 ff ff       	callq  400f67 <rand@plt+0x5f7>
  401880:	48 8b 05 69 48 20 00 	mov    0x204869(%rip),%rax        # 6060f0 <stdin@@GLIBC_2.2.5+0x28>
  401887:	8b 00                	mov    (%rax),%eax
  401889:	83 f8 06             	cmp    $0x6,%eax
  40188c:	77 3b                	ja     4018c9 <rand@plt+0xf59>
  40188e:	89 c0                	mov    %eax,%eax
  401890:	48 8b 04 c5 30 3f 40 	mov    0x403f30(,%rax,8),%rax
  401897:	00 
  401898:	ff e0                	jmpq   *%rax
  40189a:	e8 3f 00 00 00       	callq  4018de <rand@plt+0xf6e>
  40189f:	eb 38                	jmp    4018d9 <rand@plt+0xf69>
  4018a1:	e8 d0 0a 00 00       	callq  402376 <rand@plt+0x1a06>
  4018a6:	eb 31                	jmp    4018d9 <rand@plt+0xf69>
  4018a8:	e8 cc 01 00 00       	callq  401a79 <rand@plt+0x1109>
  4018ad:	eb 2a                	jmp    4018d9 <rand@plt+0xf69>
  4018af:	e8 b8 05 00 00       	callq  401e6c <rand@plt+0x14fc>
  4018b4:	eb 23                	jmp    4018d9 <rand@plt+0xf69>
  4018b6:	b8 00 00 00 00       	mov    $0x0,%eax
  4018bb:	e8 a3 fc ff ff       	callq  401563 <rand@plt+0xbf3>
  4018c0:	eb 17                	jmp    4018d9 <rand@plt+0xf69>
  4018c2:	e8 86 f4 ff ff       	callq  400d4d <rand@plt+0x3dd>
  4018c7:	eb 10                	jmp    4018d9 <rand@plt+0xf69>
  4018c9:	bf 1b 3f 40 00       	mov    $0x403f1b,%edi
  4018ce:	b8 00 00 00 00       	mov    $0x0,%eax
  4018d3:	e8 0d 1a 00 00       	callq  4032e5 <rand@plt+0x2975>
  4018d8:	90                   	nop
  4018d9:	e9 2a ff ff ff       	jmpq   401808 <rand@plt+0xe98>
  4018de:	55                   	push   %rbp
  4018df:	48 89 e5             	mov    %rsp,%rbp
  4018e2:	48 83 ec 10          	sub    $0x10,%rsp
  4018e6:	e8 52 f6 ff ff       	callq  400f3d <rand@plt+0x5cd>
  4018eb:	bf 68 3f 40 00       	mov    $0x403f68,%edi
  4018f0:	b8 00 00 00 00       	mov    $0x0,%eax
  4018f5:	e8 eb 19 00 00       	callq  4032e5 <rand@plt+0x2975>
  4018fa:	48 8b 05 e7 47 20 00 	mov    0x2047e7(%rip),%rax        # 6060e8 <stdin@@GLIBC_2.2.5+0x20>
  401901:	8b 00                	mov    (%rax),%eax
  401903:	85 c0                	test   %eax,%eax
  401905:	75 14                	jne    40191b <rand@plt+0xfab>
  401907:	bf d2 3d 40 00       	mov    $0x403dd2,%edi
  40190c:	b8 00 00 00 00       	mov    $0x0,%eax
  401911:	e8 cf 19 00 00       	callq  4032e5 <rand@plt+0x2975>
  401916:	e9 5c 01 00 00       	jmpq   401a77 <rand@plt+0x1107>
  40191b:	bf 88 3f 40 00       	mov    $0x403f88,%edi
  401920:	b8 00 00 00 00       	mov    $0x0,%eax
  401925:	e8 bb 19 00 00       	callq  4032e5 <rand@plt+0x2975>
  40192a:	c7 45 fc 00 00 00 00 	movl   $0x0,-0x4(%rbp)
  401931:	e9 2f 01 00 00       	jmpq   401a65 <rand@plt+0x10f5>
  401936:	48 8b 15 9b 47 20 00 	mov    0x20479b(%rip),%rdx        # 6060d8 <stdin@@GLIBC_2.2.5+0x10>
  40193d:	8b 45 fc             	mov    -0x4(%rbp),%eax
  401940:	48 98                	cltq   
  401942:	48 c1 e0 03          	shl    $0x3,%rax
  401946:	48 89 c1             	mov    %rax,%rcx
  401949:	48 c1 e1 05          	shl    $0x5,%rcx
  40194d:	48 29 c1             	sub    %rax,%rcx
  401950:	48 89 c8             	mov    %rcx,%rax
  401953:	48 01 d0             	add    %rdx,%rax
  401956:	48 89 c6             	mov    %rax,%rsi
  401959:	bf a9 3f 40 00       	mov    $0x403fa9,%edi
  40195e:	b8 00 00 00 00       	mov    $0x0,%eax
  401963:	e8 7d 19 00 00       	callq  4032e5 <rand@plt+0x2975>
  401968:	48 8b 15 69 47 20 00 	mov    0x204769(%rip),%rdx        # 6060d8 <stdin@@GLIBC_2.2.5+0x10>
  40196f:	8b 45 fc             	mov    -0x4(%rbp),%eax
  401972:	48 98                	cltq   
  401974:	48 c1 e0 03          	shl    $0x3,%rax
  401978:	48 89 c1             	mov    %rax,%rcx
  40197b:	48 c1 e1 05          	shl    $0x5,%rcx
  40197f:	48 29 c1             	sub    %rax,%rcx
  401982:	48 89 c8             	mov    %rcx,%rax
  401985:	48 01 d0             	add    %rdx,%rax
  401988:	8b 40 18             	mov    0x18(%rax),%eax
  40198b:	89 c6                	mov    %eax,%esi
  40198d:	bf b9 3f 40 00       	mov    $0x403fb9,%edi
  401992:	b8 00 00 00 00       	mov    $0x0,%eax
  401997:	e8 49 19 00 00       	callq  4032e5 <rand@plt+0x2975>
  40199c:	48 8b 15 35 47 20 00 	mov    0x204735(%rip),%rdx        # 6060d8 <stdin@@GLIBC_2.2.5+0x10>
  4019a3:	8b 45 fc             	mov    -0x4(%rbp),%eax
  4019a6:	48 98                	cltq   
  4019a8:	48 c1 e0 03          	shl    $0x3,%rax
  4019ac:	48 89 c1             	mov    %rax,%rcx
  4019af:	48 c1 e1 05          	shl    $0x5,%rcx
  4019b3:	48 29 c1             	sub    %rax,%rcx
  4019b6:	48 89 c8             	mov    %rcx,%rax
  4019b9:	48 01 d0             	add    %rdx,%rax
  4019bc:	8b 40 1c             	mov    0x1c(%rax),%eax
  4019bf:	89 c6                	mov    %eax,%esi
  4019c1:	bf c4 3f 40 00       	mov    $0x403fc4,%edi
  4019c6:	b8 00 00 00 00       	mov    $0x0,%eax
  4019cb:	e8 15 19 00 00       	callq  4032e5 <rand@plt+0x2975>
  4019d0:	48 8b 15 01 47 20 00 	mov    0x204701(%rip),%rdx        # 6060d8 <stdin@@GLIBC_2.2.5+0x10>
  4019d7:	8b 45 fc             	mov    -0x4(%rbp),%eax
  4019da:	48 98                	cltq   
  4019dc:	48 c1 e0 03          	shl    $0x3,%rax
  4019e0:	48 89 c1             	mov    %rax,%rcx
  4019e3:	48 c1 e1 05          	shl    $0x5,%rcx
  4019e7:	48 29 c1             	sub    %rax,%rcx
  4019ea:	48 89 c8             	mov    %rcx,%rax
  4019ed:	48 01 d0             	add    %rdx,%rax
  4019f0:	48 83 c0 20          	add    $0x20,%rax
  4019f4:	48 89 c6             	mov    %rax,%rsi
  4019f7:	bf ce 3f 40 00       	mov    $0x403fce,%edi
  4019fc:	b8 00 00 00 00       	mov    $0x0,%eax
  401a01:	e8 df 18 00 00       	callq  4032e5 <rand@plt+0x2975>
  401a06:	48 8b 15 cb 46 20 00 	mov    0x2046cb(%rip),%rdx        # 6060d8 <stdin@@GLIBC_2.2.5+0x10>
  401a0d:	8b 45 fc             	mov    -0x4(%rbp),%eax
  401a10:	48 98                	cltq   
  401a12:	48 c1 e0 03          	shl    $0x3,%rax
  401a16:	48 89 c1             	mov    %rax,%rcx
  401a19:	48 c1 e1 05          	shl    $0x5,%rcx
  401a1d:	48 29 c1             	sub    %rax,%rcx
  401a20:	48 89 c8             	mov    %rcx,%rax
  401a23:	48 01 d0             	add    %rdx,%rax
  401a26:	48 8b 90 f0 00 00 00 	mov    0xf0(%rax),%rdx
  401a2d:	48 8b 0d a4 46 20 00 	mov    0x2046a4(%rip),%rcx        # 6060d8 <stdin@@GLIBC_2.2.5+0x10>
  401a34:	8b 45 fc             	mov    -0x4(%rbp),%eax
  401a37:	48 98                	cltq   
  401a39:	48 c1 e0 03          	shl    $0x3,%rax
  401a3d:	48 89 c6             	mov    %rax,%rsi
  401a40:	48 c1 e6 05          	shl    $0x5,%rsi
  401a44:	48 29 c6             	sub    %rax,%rsi
  401a47:	48 89 f0             	mov    %rsi,%rax
  401a4a:	48 01 c8             	add    %rcx,%rax
  401a4d:	48 89 c7             	mov    %rax,%rdi
  401a50:	ff d2                	callq  *%rdx
  401a52:	bf 88 3f 40 00       	mov    $0x403f88,%edi
  401a57:	b8 00 00 00 00       	mov    $0x0,%eax
  401a5c:	e8 84 18 00 00       	callq  4032e5 <rand@plt+0x2975>
  401a61:	83 45 fc 01          	addl   $0x1,-0x4(%rbp)
  401a65:	48 8b 05 7c 46 20 00 	mov    0x20467c(%rip),%rax        # 6060e8 <stdin@@GLIBC_2.2.5+0x20>
  401a6c:	8b 00                	mov    (%rax),%eax
  401a6e:	3b 45 fc             	cmp    -0x4(%rbp),%eax
  401a71:	0f 8f bf fe ff ff    	jg     401936 <rand@plt+0xfc6>
  401a77:	c9                   	leaveq 
  401a78:	c3                   	retq   
  401a79:	55                   	push   %rbp
  401a7a:	48 89 e5             	mov    %rsp,%rbp
  401a7d:	53                   	push   %rbx
  401a7e:	48 81 ec 18 01 00 00 	sub    $0x118,%rsp
  401a85:	64 48 8b 04 25 28 00 	mov    %fs:0x28,%rax
  401a8c:	00 00 
  401a8e:	48 89 45 e8          	mov    %rax,-0x18(%rbp)
  401a92:	31 c0                	xor    %eax,%eax
  401a94:	bf da 3f 40 00       	mov    $0x403fda,%edi
  401a99:	b8 00 00 00 00       	mov    $0x0,%eax
  401a9e:	e8 42 18 00 00       	callq  4032e5 <rand@plt+0x2975>
  401aa3:	48 8b 05 3e 46 20 00 	mov    0x20463e(%rip),%rax        # 6060e8 <stdin@@GLIBC_2.2.5+0x20>
  401aaa:	8b 00                	mov    (%rax),%eax
  401aac:	85 c0                	test   %eax,%eax
  401aae:	75 14                	jne    401ac4 <rand@plt+0x1154>
  401ab0:	bf d2 3d 40 00       	mov    $0x403dd2,%edi
  401ab5:	b8 00 00 00 00       	mov    $0x0,%eax
  401aba:	e8 26 18 00 00       	callq  4032e5 <rand@plt+0x2975>
  401abf:	e9 85 03 00 00       	jmpq   401e49 <rand@plt+0x14d9>
  401ac4:	bf 88 3f 40 00       	mov    $0x403f88,%edi
  401ac9:	b8 00 00 00 00       	mov    $0x0,%eax
  401ace:	e8 12 18 00 00       	callq  4032e5 <rand@plt+0x2975>
  401ad3:	c7 85 e4 fe ff ff 00 	movl   $0x0,-0x11c(%rbp)
  401ada:	00 00 00 
  401add:	eb 53                	jmp    401b32 <rand@plt+0x11c2>
  401adf:	8b 85 e4 fe ff ff    	mov    -0x11c(%rbp),%eax
  401ae5:	83 c0 01             	add    $0x1,%eax
  401ae8:	89 85 e8 fe ff ff    	mov    %eax,-0x118(%rbp)
  401aee:	48 8b 15 e3 45 20 00 	mov    0x2045e3(%rip),%rdx        # 6060d8 <stdin@@GLIBC_2.2.5+0x10>
  401af5:	8b 85 e4 fe ff ff    	mov    -0x11c(%rbp),%eax
  401afb:	48 98                	cltq   
  401afd:	48 c1 e0 03          	shl    $0x3,%rax
  401b01:	48 89 c1             	mov    %rax,%rcx
  401b04:	48 c1 e1 05          	shl    $0x5,%rcx
  401b08:	48 29 c1             	sub    %rax,%rcx
  401b0b:	48 89 c8             	mov    %rcx,%rax
  401b0e:	48 01 d0             	add    %rdx,%rax
  401b11:	48 89 c2             	mov    %rax,%rdx
  401b14:	8b 85 e8 fe ff ff    	mov    -0x118(%rbp),%eax
  401b1a:	89 c6                	mov    %eax,%esi
  401b1c:	bf e8 3f 40 00       	mov    $0x403fe8,%edi
  401b21:	b8 00 00 00 00       	mov    $0x0,%eax
  401b26:	e8 ba 17 00 00       	callq  4032e5 <rand@plt+0x2975>
  401b2b:	83 85 e4 fe ff ff 01 	addl   $0x1,-0x11c(%rbp)
  401b32:	48 8b 05 af 45 20 00 	mov    0x2045af(%rip),%rax        # 6060e8 <stdin@@GLIBC_2.2.5+0x20>
  401b39:	8b 00                	mov    (%rax),%eax
  401b3b:	3b 85 e4 fe ff ff    	cmp    -0x11c(%rbp),%eax
  401b41:	7f 9c                	jg     401adf <rand@plt+0x116f>
  401b43:	bf f8 3f 40 00       	mov    $0x403ff8,%edi
  401b48:	b8 00 00 00 00       	mov    $0x0,%eax
  401b4d:	e8 93 17 00 00       	callq  4032e5 <rand@plt+0x2975>
  401b52:	48 8b 05 97 45 20 00 	mov    0x204597(%rip),%rax        # 6060f0 <stdin@@GLIBC_2.2.5+0x28>
  401b59:	48 89 c7             	mov    %rax,%rdi
  401b5c:	e8 06 f4 ff ff       	callq  400f67 <rand@plt+0x5f7>
  401b61:	48 8b 05 88 45 20 00 	mov    0x204588(%rip),%rax        # 6060f0 <stdin@@GLIBC_2.2.5+0x28>
  401b68:	8b 00                	mov    (%rax),%eax
  401b6a:	83 e8 01             	sub    $0x1,%eax
  401b6d:	89 85 ec fe ff ff    	mov    %eax,-0x114(%rbp)
  401b73:	48 8b 05 6e 45 20 00 	mov    0x20456e(%rip),%rax        # 6060e8 <stdin@@GLIBC_2.2.5+0x20>
  401b7a:	8b 00                	mov    (%rax),%eax
  401b7c:	3b 85 ec fe ff ff    	cmp    -0x114(%rbp),%eax
  401b82:	0f 8e ab 02 00 00    	jle    401e33 <rand@plt+0x14c3>
  401b88:	48 8b 05 61 45 20 00 	mov    0x204561(%rip),%rax        # 6060f0 <stdin@@GLIBC_2.2.5+0x28>
  401b8f:	8b 00                	mov    (%rax),%eax
  401b91:	89 c6                	mov    %eax,%esi
  401b93:	bf 1e 40 40 00       	mov    $0x40401e,%edi
  401b98:	b8 00 00 00 00       	mov    $0x0,%eax
  401b9d:	e8 43 17 00 00       	callq  4032e5 <rand@plt+0x2975>
  401ba2:	bf 2e 40 40 00       	mov    $0x40402e,%edi
  401ba7:	b8 00 00 00 00       	mov    $0x0,%eax
  401bac:	e8 34 17 00 00       	callq  4032e5 <rand@plt+0x2975>
  401bb1:	48 8b 05 08 45 20 00 	mov    0x204508(%rip),%rax        # 6060c0 <stdout@@GLIBC_2.2.5>
  401bb8:	48 89 c7             	mov    %rax,%rdi
  401bbb:	e8 60 ed ff ff       	callq  400920 <fflush@plt>
  401bc0:	48 8b 15 01 45 20 00 	mov    0x204501(%rip),%rdx        # 6060c8 <stdin@@GLIBC_2.2.5>
  401bc7:	48 8d 85 f0 fe ff ff 	lea    -0x110(%rbp),%rax
  401bce:	be 14 00 00 00       	mov    $0x14,%esi
  401bd3:	48 89 c7             	mov    %rax,%rdi
  401bd6:	e8 f5 ec ff ff       	callq  4008d0 <fgets@plt>
  401bdb:	48 8d 85 f0 fe ff ff 	lea    -0x110(%rbp),%rax
  401be2:	be 14 00 00 00       	mov    $0x14,%esi
  401be7:	48 89 c7             	mov    %rax,%rdi
  401bea:	b8 00 00 00 00       	mov    $0x0,%eax
  401bef:	e8 3c ef ff ff       	callq  400b30 <rand@plt+0x1c0>
  401bf4:	bf 3b 40 40 00       	mov    $0x40403b,%edi
  401bf9:	b8 00 00 00 00       	mov    $0x0,%eax
  401bfe:	e8 e2 16 00 00       	callq  4032e5 <rand@plt+0x2975>
  401c03:	48 8d 85 f0 fe ff ff 	lea    -0x110(%rbp),%rax
  401c0a:	48 83 c0 18          	add    $0x18,%rax
  401c0e:	48 89 c7             	mov    %rax,%rdi
  401c11:	e8 51 f3 ff ff       	callq  400f67 <rand@plt+0x5f7>
  401c16:	bf 43 40 40 00       	mov    $0x404043,%edi
  401c1b:	b8 00 00 00 00       	mov    $0x0,%eax
  401c20:	e8 c0 16 00 00       	callq  4032e5 <rand@plt+0x2975>
  401c25:	48 8d 85 f0 fe ff ff 	lea    -0x110(%rbp),%rax
  401c2c:	48 83 c0 1c          	add    $0x1c,%rax
  401c30:	48 89 c7             	mov    %rax,%rdi
  401c33:	e8 2f f3 ff ff       	callq  400f67 <rand@plt+0x5f7>
  401c38:	bf 4a 40 40 00       	mov    $0x40404a,%edi
  401c3d:	b8 00 00 00 00       	mov    $0x0,%eax
  401c42:	e8 9e 16 00 00       	callq  4032e5 <rand@plt+0x2975>
  401c47:	48 8b 05 72 44 20 00 	mov    0x204472(%rip),%rax        # 6060c0 <stdout@@GLIBC_2.2.5>
  401c4e:	48 89 c7             	mov    %rax,%rdi
  401c51:	e8 ca ec ff ff       	callq  400920 <fflush@plt>
  401c56:	48 8b 05 6b 44 20 00 	mov    0x20446b(%rip),%rax        # 6060c8 <stdin@@GLIBC_2.2.5>
  401c5d:	48 8d 95 f0 fe ff ff 	lea    -0x110(%rbp),%rdx
  401c64:	48 8d 4a 20          	lea    0x20(%rdx),%rcx
  401c68:	48 89 c2             	mov    %rax,%rdx
  401c6b:	be 68 00 00 00       	mov    $0x68,%esi
  401c70:	48 89 cf             	mov    %rcx,%rdi
  401c73:	e8 58 ec ff ff       	callq  4008d0 <fgets@plt>
  401c78:	48 8d 85 f0 fe ff ff 	lea    -0x110(%rbp),%rax
  401c7f:	48 83 c0 20          	add    $0x20,%rax
  401c83:	be 68 00 00 00       	mov    $0x68,%esi
  401c88:	48 89 c7             	mov    %rax,%rdi
  401c8b:	b8 00 00 00 00       	mov    $0x0,%eax
  401c90:	e8 9b ee ff ff       	callq  400b30 <rand@plt+0x1c0>
  401c95:	bf 53 40 40 00       	mov    $0x404053,%edi
  401c9a:	b8 00 00 00 00       	mov    $0x0,%eax
  401c9f:	e8 41 16 00 00       	callq  4032e5 <rand@plt+0x2975>
  401ca4:	48 8d 85 f0 fe ff ff 	lea    -0x110(%rbp),%rax
  401cab:	48 89 c6             	mov    %rax,%rsi
  401cae:	bf 66 40 40 00       	mov    $0x404066,%edi
  401cb3:	b8 00 00 00 00       	mov    $0x0,%eax
  401cb8:	e8 28 16 00 00       	callq  4032e5 <rand@plt+0x2975>
  401cbd:	8b 85 08 ff ff ff    	mov    -0xf8(%rbp),%eax
  401cc3:	89 c6                	mov    %eax,%esi
  401cc5:	bf b9 3f 40 00       	mov    $0x403fb9,%edi
  401cca:	b8 00 00 00 00       	mov    $0x0,%eax
  401ccf:	e8 11 16 00 00       	callq  4032e5 <rand@plt+0x2975>
  401cd4:	8b 85 0c ff ff ff    	mov    -0xf4(%rbp),%eax
  401cda:	89 c6                	mov    %eax,%esi
  401cdc:	bf 71 40 40 00       	mov    $0x404071,%edi
  401ce1:	b8 00 00 00 00       	mov    $0x0,%eax
  401ce6:	e8 fa 15 00 00       	callq  4032e5 <rand@plt+0x2975>
  401ceb:	48 8d 85 f0 fe ff ff 	lea    -0x110(%rbp),%rax
  401cf2:	48 83 c0 20          	add    $0x20,%rax
  401cf6:	48 89 c6             	mov    %rax,%rsi
  401cf9:	bf 7c 40 40 00       	mov    $0x40407c,%edi
  401cfe:	b8 00 00 00 00       	mov    $0x0,%eax
  401d03:	e8 dd 15 00 00       	callq  4032e5 <rand@plt+0x2975>
  401d08:	bf 87 40 40 00       	mov    $0x404087,%edi
  401d0d:	b8 00 00 00 00       	mov    $0x0,%eax
  401d12:	e8 ce 15 00 00       	callq  4032e5 <rand@plt+0x2975>
  401d17:	48 8b 05 a2 43 20 00 	mov    0x2043a2(%rip),%rax        # 6060c0 <stdout@@GLIBC_2.2.5>
  401d1e:	48 89 c7             	mov    %rax,%rdi
  401d21:	e8 fa eb ff ff       	callq  400920 <fflush@plt>
  401d26:	e8 71 f2 ff ff       	callq  400f9c <rand@plt+0x62c>
  401d2b:	85 c0                	test   %eax,%eax
  401d2d:	75 0a                	jne    401d39 <rand@plt+0x13c9>
  401d2f:	b8 00 00 00 00       	mov    $0x0,%eax
  401d34:	e9 15 01 00 00       	jmpq   401e4e <rand@plt+0x14de>
  401d39:	48 8b 15 98 43 20 00 	mov    0x204398(%rip),%rdx        # 6060d8 <stdin@@GLIBC_2.2.5+0x10>
  401d40:	8b 85 ec fe ff ff    	mov    -0x114(%rbp),%eax
  401d46:	48 98                	cltq   
  401d48:	48 c1 e0 03          	shl    $0x3,%rax
  401d4c:	48 89 c1             	mov    %rax,%rcx
  401d4f:	48 c1 e1 05          	shl    $0x5,%rcx
  401d53:	48 29 c1             	sub    %rax,%rcx
  401d56:	48 89 c8             	mov    %rcx,%rax
  401d59:	48 01 d0             	add    %rdx,%rax
  401d5c:	48 8d 95 f0 fe ff ff 	lea    -0x110(%rbp),%rdx
  401d63:	48 89 d6             	mov    %rdx,%rsi
  401d66:	48 89 c7             	mov    %rax,%rdi
  401d69:	e8 f2 ea ff ff       	callq  400860 <strcpy@plt>
  401d6e:	48 8b 15 63 43 20 00 	mov    0x204363(%rip),%rdx        # 6060d8 <stdin@@GLIBC_2.2.5+0x10>
  401d75:	8b 85 ec fe ff ff    	mov    -0x114(%rbp),%eax
  401d7b:	48 98                	cltq   
  401d7d:	48 c1 e0 03          	shl    $0x3,%rax
  401d81:	48 89 c1             	mov    %rax,%rcx
  401d84:	48 c1 e1 05          	shl    $0x5,%rcx
  401d88:	48 29 c1             	sub    %rax,%rcx
  401d8b:	48 89 c8             	mov    %rcx,%rax
  401d8e:	48 01 c2             	add    %rax,%rdx
  401d91:	8b 85 08 ff ff ff    	mov    -0xf8(%rbp),%eax
  401d97:	89 42 18             	mov    %eax,0x18(%rdx)
  401d9a:	48 8b 15 37 43 20 00 	mov    0x204337(%rip),%rdx        # 6060d8 <stdin@@GLIBC_2.2.5+0x10>
  401da1:	8b 85 ec fe ff ff    	mov    -0x114(%rbp),%eax
  401da7:	48 98                	cltq   
  401da9:	48 c1 e0 03          	shl    $0x3,%rax
  401dad:	48 89 c1             	mov    %rax,%rcx
  401db0:	48 c1 e1 05          	shl    $0x5,%rcx
  401db4:	48 29 c1             	sub    %rax,%rcx
  401db7:	48 89 c8             	mov    %rcx,%rax
  401dba:	48 01 c2             	add    %rax,%rdx
  401dbd:	8b 85 0c ff ff ff    	mov    -0xf4(%rbp),%eax
  401dc3:	89 42 1c             	mov    %eax,0x1c(%rdx)
  401dc6:	48 8b 15 0b 43 20 00 	mov    0x20430b(%rip),%rdx        # 6060d8 <stdin@@GLIBC_2.2.5+0x10>
  401dcd:	8b 85 ec fe ff ff    	mov    -0x114(%rbp),%eax
  401dd3:	48 98                	cltq   
  401dd5:	48 c1 e0 03          	shl    $0x3,%rax
  401dd9:	48 89 c1             	mov    %rax,%rcx
  401ddc:	48 c1 e1 05          	shl    $0x5,%rcx
  401de0:	48 29 c1             	sub    %rax,%rcx
  401de3:	48 89 c8             	mov    %rcx,%rax
  401de6:	48 01 d0             	add    %rdx,%rax
  401de9:	48 83 c0 20          	add    $0x20,%rax
  401ded:	48 8d 95 f0 fe ff ff 	lea    -0x110(%rbp),%rdx
  401df4:	48 83 c2 20          	add    $0x20,%rdx
  401df8:	48 89 d6             	mov    %rdx,%rsi
  401dfb:	48 89 c7             	mov    %rax,%rdi
  401dfe:	e8 5d ea ff ff       	callq  400860 <strcpy@plt>
  401e03:	48 8b 15 ce 42 20 00 	mov    0x2042ce(%rip),%rdx        # 6060d8 <stdin@@GLIBC_2.2.5+0x10>
  401e0a:	8b 85 ec fe ff ff    	mov    -0x114(%rbp),%eax
  401e10:	48 98                	cltq   
  401e12:	48 c1 e0 03          	shl    $0x3,%rax
  401e16:	48 89 c1             	mov    %rax,%rcx
  401e19:	48 c1 e1 05          	shl    $0x5,%rcx
  401e1d:	48 29 c1             	sub    %rax,%rcx
  401e20:	48 89 c8             	mov    %rcx,%rax
  401e23:	48 01 d0             	add    %rdx,%rax
  401e26:	48 c7 80 f0 00 00 00 	movq   $0x401530,0xf0(%rax)
  401e2d:	30 15 40 00 
  401e31:	eb 16                	jmp    401e49 <rand@plt+0x14d9>
  401e33:	bf 9f 40 40 00       	mov    $0x40409f,%edi
  401e38:	b8 00 00 00 00       	mov    $0x0,%eax
  401e3d:	e8 a3 14 00 00       	callq  4032e5 <rand@plt+0x2975>
  401e42:	b8 00 00 00 00       	mov    $0x0,%eax
  401e47:	eb 05                	jmp    401e4e <rand@plt+0x14de>
  401e49:	b8 01 00 00 00       	mov    $0x1,%eax
  401e4e:	48 8b 5d e8          	mov    -0x18(%rbp),%rbx
  401e52:	64 48 33 1c 25 28 00 	xor    %fs:0x28,%rbx
  401e59:	00 00 
  401e5b:	74 05                	je     401e62 <rand@plt+0x14f2>
  401e5d:	e8 2e ea ff ff       	callq  400890 <__stack_chk_fail@plt>
  401e62:	48 81 c4 18 01 00 00 	add    $0x118,%rsp
  401e69:	5b                   	pop    %rbx
  401e6a:	5d                   	pop    %rbp
  401e6b:	c3                   	retq   
  401e6c:	55                   	push   %rbp
  401e6d:	48 89 e5             	mov    %rsp,%rbp
  401e70:	48 83 ec 10          	sub    $0x10,%rsp
  401e74:	bf a8 40 40 00       	mov    $0x4040a8,%edi
  401e79:	b8 00 00 00 00       	mov    $0x0,%eax
  401e7e:	e8 62 14 00 00       	callq  4032e5 <rand@plt+0x2975>
  401e83:	48 8b 05 5e 42 20 00 	mov    0x20425e(%rip),%rax        # 6060e8 <stdin@@GLIBC_2.2.5+0x20>
  401e8a:	8b 00                	mov    (%rax),%eax
  401e8c:	85 c0                	test   %eax,%eax
  401e8e:	75 14                	jne    401ea4 <rand@plt+0x1534>
  401e90:	bf d2 3d 40 00       	mov    $0x403dd2,%edi
  401e95:	b8 00 00 00 00       	mov    $0x0,%eax
  401e9a:	e8 46 14 00 00       	callq  4032e5 <rand@plt+0x2975>
  401e9f:	e9 cb 04 00 00       	jmpq   40236f <rand@plt+0x19ff>
  401ea4:	bf 88 3f 40 00       	mov    $0x403f88,%edi
  401ea9:	b8 00 00 00 00       	mov    $0x0,%eax
  401eae:	e8 32 14 00 00       	callq  4032e5 <rand@plt+0x2975>
  401eb3:	c7 45 f8 00 00 00 00 	movl   $0x0,-0x8(%rbp)
  401eba:	eb 53                	jmp    401f0f <rand@plt+0x159f>
  401ebc:	8b 45 f8             	mov    -0x8(%rbp),%eax
  401ebf:	83 c0 01             	add    $0x1,%eax
  401ec2:	89 45 fc             	mov    %eax,-0x4(%rbp)
  401ec5:	8b 45 fc             	mov    -0x4(%rbp),%eax
  401ec8:	89 c6                	mov    %eax,%esi
  401eca:	bf b5 40 40 00       	mov    $0x4040b5,%edi
  401ecf:	b8 00 00 00 00       	mov    $0x0,%eax
  401ed4:	e8 0c 14 00 00       	callq  4032e5 <rand@plt+0x2975>
  401ed9:	48 8b 15 f8 41 20 00 	mov    0x2041f8(%rip),%rdx        # 6060d8 <stdin@@GLIBC_2.2.5+0x10>
  401ee0:	8b 45 f8             	mov    -0x8(%rbp),%eax
  401ee3:	48 98                	cltq   
  401ee5:	48 c1 e0 03          	shl    $0x3,%rax
  401ee9:	48 89 c1             	mov    %rax,%rcx
  401eec:	48 c1 e1 05          	shl    $0x5,%rcx
  401ef0:	48 29 c1             	sub    %rax,%rcx
  401ef3:	48 89 c8             	mov    %rcx,%rax
  401ef6:	48 01 d0             	add    %rdx,%rax
  401ef9:	48 89 c6             	mov    %rax,%rsi
  401efc:	bf bd 40 40 00       	mov    $0x4040bd,%edi
  401f01:	b8 00 00 00 00       	mov    $0x0,%eax
  401f06:	e8 da 13 00 00       	callq  4032e5 <rand@plt+0x2975>
  401f0b:	83 45 f8 01          	addl   $0x1,-0x8(%rbp)
  401f0f:	48 8b 05 d2 41 20 00 	mov    0x2041d2(%rip),%rax        # 6060e8 <stdin@@GLIBC_2.2.5+0x20>
  401f16:	8b 00                	mov    (%rax),%eax
  401f18:	3b 45 f8             	cmp    -0x8(%rbp),%eax
  401f1b:	7f 9f                	jg     401ebc <rand@plt+0x154c>
  401f1d:	bf c8 40 40 00       	mov    $0x4040c8,%edi
  401f22:	e8 49 e9 ff ff       	callq  400870 <puts@plt>
  401f27:	48 8b 05 c2 41 20 00 	mov    0x2041c2(%rip),%rax        # 6060f0 <stdin@@GLIBC_2.2.5+0x28>
  401f2e:	48 89 c7             	mov    %rax,%rdi
  401f31:	e8 31 f0 ff ff       	callq  400f67 <rand@plt+0x5f7>
  401f36:	48 8b 05 b3 41 20 00 	mov    0x2041b3(%rip),%rax        # 6060f0 <stdin@@GLIBC_2.2.5+0x28>
  401f3d:	8b 00                	mov    (%rax),%eax
  401f3f:	83 e8 01             	sub    $0x1,%eax
  401f42:	89 45 fc             	mov    %eax,-0x4(%rbp)
  401f45:	83 7d fc 63          	cmpl   $0x63,-0x4(%rbp)
  401f49:	75 4d                	jne    401f98 <rand@plt+0x1628>
  401f4b:	48 8b 05 a6 41 20 00 	mov    0x2041a6(%rip),%rax        # 6060f8 <stdin@@GLIBC_2.2.5+0x30>
  401f52:	8b 40 18             	mov    0x18(%rax),%eax
  401f55:	83 f8 03             	cmp    $0x3,%eax
  401f58:	75 25                	jne    401f7f <rand@plt+0x160f>
  401f5a:	bf ed 40 40 00       	mov    $0x4040ed,%edi
  401f5f:	b8 00 00 00 00       	mov    $0x0,%eax
  401f64:	e8 7c 13 00 00       	callq  4032e5 <rand@plt+0x2975>
  401f69:	48 8b 05 68 41 20 00 	mov    0x204168(%rip),%rax        # 6060d8 <stdin@@GLIBC_2.2.5+0x10>
  401f70:	48 89 c7             	mov    %rax,%rdi
  401f73:	e8 d8 e8 ff ff       	callq  400850 <free@plt>
  401f78:	e8 e7 f7 ff ff       	callq  401764 <rand@plt+0xdf4>
  401f7d:	eb 19                	jmp    401f98 <rand@plt+0x1628>
  401f7f:	bf f9 40 40 00       	mov    $0x4040f9,%edi
  401f84:	b8 00 00 00 00       	mov    $0x0,%eax
  401f89:	e8 57 13 00 00       	callq  4032e5 <rand@plt+0x2975>
  401f8e:	b8 00 00 00 00       	mov    $0x0,%eax
  401f93:	e9 dc 03 00 00       	jmpq   402374 <rand@plt+0x1a04>
  401f98:	48 8b 05 49 41 20 00 	mov    0x204149(%rip),%rax        # 6060e8 <stdin@@GLIBC_2.2.5+0x20>
  401f9f:	8b 00                	mov    (%rax),%eax
  401fa1:	83 f8 01             	cmp    $0x1,%eax
  401fa4:	7f 19                	jg     401fbf <rand@plt+0x164f>
  401fa6:	bf f9 40 40 00       	mov    $0x4040f9,%edi
  401fab:	b8 00 00 00 00       	mov    $0x0,%eax
  401fb0:	e8 30 13 00 00       	callq  4032e5 <rand@plt+0x2975>
  401fb5:	b8 00 00 00 00       	mov    $0x0,%eax
  401fba:	e9 b5 03 00 00       	jmpq   402374 <rand@plt+0x1a04>
  401fbf:	8b 45 fc             	mov    -0x4(%rbp),%eax
  401fc2:	83 f8 01             	cmp    $0x1,%eax
  401fc5:	0f 84 84 02 00 00    	je     40224f <rand@plt+0x18df>
  401fcb:	83 f8 01             	cmp    $0x1,%eax
  401fce:	72 0e                	jb     401fde <rand@plt+0x166e>
  401fd0:	83 f8 02             	cmp    $0x2,%eax
  401fd3:	0f 84 73 03 00 00    	je     40234c <rand@plt+0x19dc>
  401fd9:	e9 7d 03 00 00       	jmpq   40235b <rand@plt+0x19eb>
  401fde:	48 8b 05 03 41 20 00 	mov    0x204103(%rip),%rax        # 6060e8 <stdin@@GLIBC_2.2.5+0x20>
  401fe5:	8b 00                	mov    (%rax),%eax
  401fe7:	83 f8 01             	cmp    $0x1,%eax
  401fea:	75 12                	jne    401ffe <rand@plt+0x168e>
  401fec:	48 8b 05 f5 40 20 00 	mov    0x2040f5(%rip),%rax        # 6060e8 <stdin@@GLIBC_2.2.5+0x20>
  401ff3:	c7 00 00 00 00 00    	movl   $0x0,(%rax)
  401ff9:	e9 4c 02 00 00       	jmpq   40224a <rand@plt+0x18da>
  401ffe:	48 8b 05 e3 40 20 00 	mov    0x2040e3(%rip),%rax        # 6060e8 <stdin@@GLIBC_2.2.5+0x20>
  402005:	8b 00                	mov    (%rax),%eax
  402007:	83 f8 02             	cmp    $0x2,%eax
  40200a:	0f 85 b4 00 00 00    	jne    4020c4 <rand@plt+0x1754>
  402010:	48 8b 05 c1 40 20 00 	mov    0x2040c1(%rip),%rax        # 6060d8 <stdin@@GLIBC_2.2.5+0x10>
  402017:	48 05 f8 00 00 00    	add    $0xf8,%rax
  40201d:	48 89 c2             	mov    %rax,%rdx
  402020:	48 8b 05 b1 40 20 00 	mov    0x2040b1(%rip),%rax        # 6060d8 <stdin@@GLIBC_2.2.5+0x10>
  402027:	48 89 d6             	mov    %rdx,%rsi
  40202a:	48 89 c7             	mov    %rax,%rdi
  40202d:	e8 2e e8 ff ff       	callq  400860 <strcpy@plt>
  402032:	48 8b 05 9f 40 20 00 	mov    0x20409f(%rip),%rax        # 6060d8 <stdin@@GLIBC_2.2.5+0x10>
  402039:	48 8b 15 98 40 20 00 	mov    0x204098(%rip),%rdx        # 6060d8 <stdin@@GLIBC_2.2.5+0x10>
  402040:	48 81 c2 f8 00 00 00 	add    $0xf8,%rdx
  402047:	8b 52 18             	mov    0x18(%rdx),%edx
  40204a:	89 50 18             	mov    %edx,0x18(%rax)
  40204d:	48 8b 05 84 40 20 00 	mov    0x204084(%rip),%rax        # 6060d8 <stdin@@GLIBC_2.2.5+0x10>
  402054:	48 8b 15 7d 40 20 00 	mov    0x20407d(%rip),%rdx        # 6060d8 <stdin@@GLIBC_2.2.5+0x10>
  40205b:	48 81 c2 f8 00 00 00 	add    $0xf8,%rdx
  402062:	8b 52 1c             	mov    0x1c(%rdx),%edx
  402065:	89 50 1c             	mov    %edx,0x1c(%rax)
  402068:	48 8b 05 69 40 20 00 	mov    0x204069(%rip),%rax        # 6060d8 <stdin@@GLIBC_2.2.5+0x10>
  40206f:	48 05 f8 00 00 00    	add    $0xf8,%rax
  402075:	48 8d 50 20          	lea    0x20(%rax),%rdx
  402079:	48 8b 05 58 40 20 00 	mov    0x204058(%rip),%rax        # 6060d8 <stdin@@GLIBC_2.2.5+0x10>
  402080:	48 83 c0 20          	add    $0x20,%rax
  402084:	48 89 d6             	mov    %rdx,%rsi
  402087:	48 89 c7             	mov    %rax,%rdi
  40208a:	e8 d1 e7 ff ff       	callq  400860 <strcpy@plt>
  40208f:	48 8b 05 42 40 20 00 	mov    0x204042(%rip),%rax        # 6060d8 <stdin@@GLIBC_2.2.5+0x10>
  402096:	48 8b 15 3b 40 20 00 	mov    0x20403b(%rip),%rdx        # 6060d8 <stdin@@GLIBC_2.2.5+0x10>
  40209d:	48 81 c2 f8 00 00 00 	add    $0xf8,%rdx
  4020a4:	48 8b 92 f0 00 00 00 	mov    0xf0(%rdx),%rdx
  4020ab:	48 89 90 f0 00 00 00 	mov    %rdx,0xf0(%rax)
  4020b2:	48 8b 05 2f 40 20 00 	mov    0x20402f(%rip),%rax        # 6060e8 <stdin@@GLIBC_2.2.5+0x20>
  4020b9:	c7 00 01 00 00 00    	movl   $0x1,(%rax)
  4020bf:	e9 86 01 00 00       	jmpq   40224a <rand@plt+0x18da>
  4020c4:	48 8b 05 1d 40 20 00 	mov    0x20401d(%rip),%rax        # 6060e8 <stdin@@GLIBC_2.2.5+0x20>
  4020cb:	8b 00                	mov    (%rax),%eax
  4020cd:	83 f8 03             	cmp    $0x3,%eax
  4020d0:	0f 85 74 01 00 00    	jne    40224a <rand@plt+0x18da>
  4020d6:	48 8b 05 fb 3f 20 00 	mov    0x203ffb(%rip),%rax        # 6060d8 <stdin@@GLIBC_2.2.5+0x10>
  4020dd:	48 05 f8 00 00 00    	add    $0xf8,%rax
  4020e3:	48 89 c2             	mov    %rax,%rdx
  4020e6:	48 8b 05 eb 3f 20 00 	mov    0x203feb(%rip),%rax        # 6060d8 <stdin@@GLIBC_2.2.5+0x10>
  4020ed:	48 89 d6             	mov    %rdx,%rsi
  4020f0:	48 89 c7             	mov    %rax,%rdi
  4020f3:	e8 68 e7 ff ff       	callq  400860 <strcpy@plt>
  4020f8:	48 8b 05 d9 3f 20 00 	mov    0x203fd9(%rip),%rax        # 6060d8 <stdin@@GLIBC_2.2.5+0x10>
  4020ff:	48 8b 15 d2 3f 20 00 	mov    0x203fd2(%rip),%rdx        # 6060d8 <stdin@@GLIBC_2.2.5+0x10>
  402106:	48 81 c2 f8 00 00 00 	add    $0xf8,%rdx
  40210d:	8b 52 18             	mov    0x18(%rdx),%edx
  402110:	89 50 18             	mov    %edx,0x18(%rax)
  402113:	48 8b 05 be 3f 20 00 	mov    0x203fbe(%rip),%rax        # 6060d8 <stdin@@GLIBC_2.2.5+0x10>
  40211a:	48 8b 15 b7 3f 20 00 	mov    0x203fb7(%rip),%rdx        # 6060d8 <stdin@@GLIBC_2.2.5+0x10>
  402121:	48 81 c2 f8 00 00 00 	add    $0xf8,%rdx
  402128:	8b 52 1c             	mov    0x1c(%rdx),%edx
  40212b:	89 50 1c             	mov    %edx,0x1c(%rax)
  40212e:	48 8b 05 a3 3f 20 00 	mov    0x203fa3(%rip),%rax        # 6060d8 <stdin@@GLIBC_2.2.5+0x10>
  402135:	48 05 f8 00 00 00    	add    $0xf8,%rax
  40213b:	48 8d 50 20          	lea    0x20(%rax),%rdx
  40213f:	48 8b 05 92 3f 20 00 	mov    0x203f92(%rip),%rax        # 6060d8 <stdin@@GLIBC_2.2.5+0x10>
  402146:	48 83 c0 20          	add    $0x20,%rax
  40214a:	48 89 d6             	mov    %rdx,%rsi
  40214d:	48 89 c7             	mov    %rax,%rdi
  402150:	e8 0b e7 ff ff       	callq  400860 <strcpy@plt>
  402155:	48 8b 05 7c 3f 20 00 	mov    0x203f7c(%rip),%rax        # 6060d8 <stdin@@GLIBC_2.2.5+0x10>
  40215c:	48 8b 15 75 3f 20 00 	mov    0x203f75(%rip),%rdx        # 6060d8 <stdin@@GLIBC_2.2.5+0x10>
  402163:	48 81 c2 f8 00 00 00 	add    $0xf8,%rdx
  40216a:	48 8b 92 f0 00 00 00 	mov    0xf0(%rdx),%rdx
  402171:	48 89 90 f0 00 00 00 	mov    %rdx,0xf0(%rax)
  402178:	48 8b 05 59 3f 20 00 	mov    0x203f59(%rip),%rax        # 6060d8 <stdin@@GLIBC_2.2.5+0x10>
  40217f:	48 05 f0 01 00 00    	add    $0x1f0,%rax
  402185:	48 89 c2             	mov    %rax,%rdx
  402188:	48 8b 05 49 3f 20 00 	mov    0x203f49(%rip),%rax        # 6060d8 <stdin@@GLIBC_2.2.5+0x10>
  40218f:	48 05 f8 00 00 00    	add    $0xf8,%rax
  402195:	48 89 d6             	mov    %rdx,%rsi
  402198:	48 89 c7             	mov    %rax,%rdi
  40219b:	e8 c0 e6 ff ff       	callq  400860 <strcpy@plt>
  4021a0:	48 8b 05 31 3f 20 00 	mov    0x203f31(%rip),%rax        # 6060d8 <stdin@@GLIBC_2.2.5+0x10>
  4021a7:	48 8d 90 f8 00 00 00 	lea    0xf8(%rax),%rdx
  4021ae:	48 8b 05 23 3f 20 00 	mov    0x203f23(%rip),%rax        # 6060d8 <stdin@@GLIBC_2.2.5+0x10>
  4021b5:	48 05 f0 01 00 00    	add    $0x1f0,%rax
  4021bb:	8b 40 18             	mov    0x18(%rax),%eax
  4021be:	89 42 18             	mov    %eax,0x18(%rdx)
  4021c1:	48 8b 05 10 3f 20 00 	mov    0x203f10(%rip),%rax        # 6060d8 <stdin@@GLIBC_2.2.5+0x10>
  4021c8:	48 8d 90 f8 00 00 00 	lea    0xf8(%rax),%rdx
  4021cf:	48 8b 05 02 3f 20 00 	mov    0x203f02(%rip),%rax        # 6060d8 <stdin@@GLIBC_2.2.5+0x10>
  4021d6:	48 05 f0 01 00 00    	add    $0x1f0,%rax
  4021dc:	8b 40 1c             	mov    0x1c(%rax),%eax
  4021df:	89 42 1c             	mov    %eax,0x1c(%rdx)
  4021e2:	48 8b 05 ef 3e 20 00 	mov    0x203eef(%rip),%rax        # 6060d8 <stdin@@GLIBC_2.2.5+0x10>
  4021e9:	48 05 f0 01 00 00    	add    $0x1f0,%rax
  4021ef:	48 8d 50 20          	lea    0x20(%rax),%rdx
  4021f3:	48 8b 05 de 3e 20 00 	mov    0x203ede(%rip),%rax        # 6060d8 <stdin@@GLIBC_2.2.5+0x10>
  4021fa:	48 05 f8 00 00 00    	add    $0xf8,%rax
  402200:	48 83 c0 20          	add    $0x20,%rax
  402204:	48 89 d6             	mov    %rdx,%rsi
  402207:	48 89 c7             	mov    %rax,%rdi
  40220a:	e8 51 e6 ff ff       	callq  400860 <strcpy@plt>
  40220f:	48 8b 05 c2 3e 20 00 	mov    0x203ec2(%rip),%rax        # 6060d8 <stdin@@GLIBC_2.2.5+0x10>
  402216:	48 8d 90 f8 00 00 00 	lea    0xf8(%rax),%rdx
  40221d:	48 8b 05 b4 3e 20 00 	mov    0x203eb4(%rip),%rax        # 6060d8 <stdin@@GLIBC_2.2.5+0x10>
  402224:	48 05 f0 01 00 00    	add    $0x1f0,%rax
  40222a:	48 8b 80 f0 00 00 00 	mov    0xf0(%rax),%rax
  402231:	48 89 82 f0 00 00 00 	mov    %rax,0xf0(%rdx)
  402238:	48 8b 05 a9 3e 20 00 	mov    0x203ea9(%rip),%rax        # 6060e8 <stdin@@GLIBC_2.2.5+0x20>
  40223f:	c7 00 02 00 00 00    	movl   $0x2,(%rax)
  402245:	e9 25 01 00 00       	jmpq   40236f <rand@plt+0x19ff>
  40224a:	e9 20 01 00 00       	jmpq   40236f <rand@plt+0x19ff>
  40224f:	48 8b 05 92 3e 20 00 	mov    0x203e92(%rip),%rax        # 6060e8 <stdin@@GLIBC_2.2.5+0x20>
  402256:	8b 00                	mov    (%rax),%eax
  402258:	83 f8 03             	cmp    $0x3,%eax
  40225b:	0f 85 cf 00 00 00    	jne    402330 <rand@plt+0x19c0>
  402261:	48 8b 05 70 3e 20 00 	mov    0x203e70(%rip),%rax        # 6060d8 <stdin@@GLIBC_2.2.5+0x10>
  402268:	48 05 f0 01 00 00    	add    $0x1f0,%rax
  40226e:	48 89 c2             	mov    %rax,%rdx
  402271:	48 8b 05 60 3e 20 00 	mov    0x203e60(%rip),%rax        # 6060d8 <stdin@@GLIBC_2.2.5+0x10>
  402278:	48 05 f8 00 00 00    	add    $0xf8,%rax
  40227e:	48 89 d6             	mov    %rdx,%rsi
  402281:	48 89 c7             	mov    %rax,%rdi
  402284:	e8 d7 e5 ff ff       	callq  400860 <strcpy@plt>
  402289:	48 8b 05 48 3e 20 00 	mov    0x203e48(%rip),%rax        # 6060d8 <stdin@@GLIBC_2.2.5+0x10>
  402290:	48 8d 90 f8 00 00 00 	lea    0xf8(%rax),%rdx
  402297:	48 8b 05 3a 3e 20 00 	mov    0x203e3a(%rip),%rax        # 6060d8 <stdin@@GLIBC_2.2.5+0x10>
  40229e:	48 05 f0 01 00 00    	add    $0x1f0,%rax
  4022a4:	8b 40 18             	mov    0x18(%rax),%eax
  4022a7:	89 42 18             	mov    %eax,0x18(%rdx)
  4022aa:	48 8b 05 27 3e 20 00 	mov    0x203e27(%rip),%rax        # 6060d8 <stdin@@GLIBC_2.2.5+0x10>
  4022b1:	48 8d 90 f8 00 00 00 	lea    0xf8(%rax),%rdx
  4022b8:	48 8b 05 19 3e 20 00 	mov    0x203e19(%rip),%rax        # 6060d8 <stdin@@GLIBC_2.2.5+0x10>
  4022bf:	48 05 f0 01 00 00    	add    $0x1f0,%rax
  4022c5:	8b 40 1c             	mov    0x1c(%rax),%eax
  4022c8:	89 42 1c             	mov    %eax,0x1c(%rdx)
  4022cb:	48 8b 05 06 3e 20 00 	mov    0x203e06(%rip),%rax        # 6060d8 <stdin@@GLIBC_2.2.5+0x10>
  4022d2:	48 05 f0 01 00 00    	add    $0x1f0,%rax
  4022d8:	48 8d 50 20          	lea    0x20(%rax),%rdx
  4022dc:	48 8b 05 f5 3d 20 00 	mov    0x203df5(%rip),%rax        # 6060d8 <stdin@@GLIBC_2.2.5+0x10>
  4022e3:	48 05 f8 00 00 00    	add    $0xf8,%rax
  4022e9:	48 83 c0 20          	add    $0x20,%rax
  4022ed:	48 89 d6             	mov    %rdx,%rsi
  4022f0:	48 89 c7             	mov    %rax,%rdi
  4022f3:	e8 68 e5 ff ff       	callq  400860 <strcpy@plt>
  4022f8:	48 8b 05 d9 3d 20 00 	mov    0x203dd9(%rip),%rax        # 6060d8 <stdin@@GLIBC_2.2.5+0x10>
  4022ff:	48 8d 90 f8 00 00 00 	lea    0xf8(%rax),%rdx
  402306:	48 8b 05 cb 3d 20 00 	mov    0x203dcb(%rip),%rax        # 6060d8 <stdin@@GLIBC_2.2.5+0x10>
  40230d:	48 05 f0 01 00 00    	add    $0x1f0,%rax
  402313:	48 8b 80 f0 00 00 00 	mov    0xf0(%rax),%rax
  40231a:	48 89 82 f0 00 00 00 	mov    %rax,0xf0(%rdx)
  402321:	48 8b 05 c0 3d 20 00 	mov    0x203dc0(%rip),%rax        # 6060e8 <stdin@@GLIBC_2.2.5+0x20>
  402328:	c7 00 02 00 00 00    	movl   $0x2,(%rax)
  40232e:	eb 3f                	jmp    40236f <rand@plt+0x19ff>
  402330:	48 8b 05 b1 3d 20 00 	mov    0x203db1(%rip),%rax        # 6060e8 <stdin@@GLIBC_2.2.5+0x20>
  402337:	c7 00 02 00 00 00    	movl   $0x2,(%rax)
  40233d:	48 8b 05 a4 3d 20 00 	mov    0x203da4(%rip),%rax        # 6060e8 <stdin@@GLIBC_2.2.5+0x20>
  402344:	c7 00 01 00 00 00    	movl   $0x1,(%rax)
  40234a:	eb 23                	jmp    40236f <rand@plt+0x19ff>
  40234c:	48 8b 05 95 3d 20 00 	mov    0x203d95(%rip),%rax        # 6060e8 <stdin@@GLIBC_2.2.5+0x20>
  402353:	c7 00 02 00 00 00    	movl   $0x2,(%rax)
  402359:	eb 14                	jmp    40236f <rand@plt+0x19ff>
  40235b:	bf 11 41 40 00       	mov    $0x404111,%edi
  402360:	e8 0b e5 ff ff       	callq  400870 <puts@plt>
  402365:	bf 01 00 00 00       	mov    $0x1,%edi
  40236a:	e8 f1 e5 ff ff       	callq  400960 <exit@plt>
  40236f:	b8 01 00 00 00       	mov    $0x1,%eax
  402374:	c9                   	leaveq 
  402375:	c3                   	retq   
  402376:	55                   	push   %rbp
  402377:	48 89 e5             	mov    %rsp,%rbp
  40237a:	48 8b 05 67 3d 20 00 	mov    0x203d67(%rip),%rax        # 6060e8 <stdin@@GLIBC_2.2.5+0x20>
  402381:	8b 00                	mov    (%rax),%eax
  402383:	83 f8 02             	cmp    $0x2,%eax
  402386:	7e 19                	jle    4023a1 <rand@plt+0x1a31>
  402388:	bf 17 41 40 00       	mov    $0x404117,%edi
  40238d:	b8 00 00 00 00       	mov    $0x0,%eax
  402392:	e8 4e 0f 00 00       	callq  4032e5 <rand@plt+0x2975>
  402397:	b8 00 00 00 00       	mov    $0x0,%eax
  40239c:	e9 ea 03 00 00       	jmpq   40278b <rand@plt+0x1e1b>
  4023a1:	48 8b 05 40 3d 20 00 	mov    0x203d40(%rip),%rax        # 6060e8 <stdin@@GLIBC_2.2.5+0x20>
  4023a8:	8b 00                	mov    (%rax),%eax
  4023aa:	83 f8 02             	cmp    $0x2,%eax
  4023ad:	0f 85 52 01 00 00    	jne    402505 <rand@plt+0x1b95>
  4023b3:	bf 30 41 40 00       	mov    $0x404130,%edi
  4023b8:	b8 00 00 00 00       	mov    $0x0,%eax
  4023bd:	e8 23 0f 00 00       	callq  4032e5 <rand@plt+0x2975>
  4023c2:	bf 2e 40 40 00       	mov    $0x40402e,%edi
  4023c7:	b8 00 00 00 00       	mov    $0x0,%eax
  4023cc:	e8 14 0f 00 00       	callq  4032e5 <rand@plt+0x2975>
  4023d1:	48 8b 05 e8 3c 20 00 	mov    0x203ce8(%rip),%rax        # 6060c0 <stdout@@GLIBC_2.2.5>
  4023d8:	48 89 c7             	mov    %rax,%rdi
  4023db:	e8 40 e5 ff ff       	callq  400920 <fflush@plt>
  4023e0:	48 8b 15 e1 3c 20 00 	mov    0x203ce1(%rip),%rdx        # 6060c8 <stdin@@GLIBC_2.2.5>
  4023e7:	48 8b 05 ea 3c 20 00 	mov    0x203cea(%rip),%rax        # 6060d8 <stdin@@GLIBC_2.2.5+0x10>
  4023ee:	48 05 f0 01 00 00    	add    $0x1f0,%rax
  4023f4:	be 14 00 00 00       	mov    $0x14,%esi
  4023f9:	48 89 c7             	mov    %rax,%rdi
  4023fc:	e8 cf e4 ff ff       	callq  4008d0 <fgets@plt>
  402401:	48 8b 05 d0 3c 20 00 	mov    0x203cd0(%rip),%rax        # 6060d8 <stdin@@GLIBC_2.2.5+0x10>
  402408:	48 05 f0 01 00 00    	add    $0x1f0,%rax
  40240e:	be 14 00 00 00       	mov    $0x14,%esi
  402413:	48 89 c7             	mov    %rax,%rdi
  402416:	b8 00 00 00 00       	mov    $0x0,%eax
  40241b:	e8 10 e7 ff ff       	callq  400b30 <rand@plt+0x1c0>
  402420:	bf 3b 40 40 00       	mov    $0x40403b,%edi
  402425:	b8 00 00 00 00       	mov    $0x0,%eax
  40242a:	e8 b6 0e 00 00       	callq  4032e5 <rand@plt+0x2975>
  40242f:	48 8b 05 a2 3c 20 00 	mov    0x203ca2(%rip),%rax        # 6060d8 <stdin@@GLIBC_2.2.5+0x10>
  402436:	48 05 f0 01 00 00    	add    $0x1f0,%rax
  40243c:	48 83 c0 18          	add    $0x18,%rax
  402440:	48 89 c7             	mov    %rax,%rdi
  402443:	e8 1f eb ff ff       	callq  400f67 <rand@plt+0x5f7>
  402448:	bf 43 40 40 00       	mov    $0x404043,%edi
  40244d:	b8 00 00 00 00       	mov    $0x0,%eax
  402452:	e8 8e 0e 00 00       	callq  4032e5 <rand@plt+0x2975>
  402457:	48 8b 05 7a 3c 20 00 	mov    0x203c7a(%rip),%rax        # 6060d8 <stdin@@GLIBC_2.2.5+0x10>
  40245e:	48 05 f0 01 00 00    	add    $0x1f0,%rax
  402464:	48 83 c0 1c          	add    $0x1c,%rax
  402468:	48 89 c7             	mov    %rax,%rdi
  40246b:	e8 f7 ea ff ff       	callq  400f67 <rand@plt+0x5f7>
  402470:	bf 4a 40 40 00       	mov    $0x40404a,%edi
  402475:	b8 00 00 00 00       	mov    $0x0,%eax
  40247a:	e8 66 0e 00 00       	callq  4032e5 <rand@plt+0x2975>
  40247f:	48 8b 05 3a 3c 20 00 	mov    0x203c3a(%rip),%rax        # 6060c0 <stdout@@GLIBC_2.2.5>
  402486:	48 89 c7             	mov    %rax,%rdi
  402489:	e8 92 e4 ff ff       	callq  400920 <fflush@plt>
  40248e:	48 8b 05 33 3c 20 00 	mov    0x203c33(%rip),%rax        # 6060c8 <stdin@@GLIBC_2.2.5>
  402495:	48 8b 15 3c 3c 20 00 	mov    0x203c3c(%rip),%rdx        # 6060d8 <stdin@@GLIBC_2.2.5+0x10>
  40249c:	48 81 c2 f0 01 00 00 	add    $0x1f0,%rdx
  4024a3:	48 8d 4a 20          	lea    0x20(%rdx),%rcx
  4024a7:	48 89 c2             	mov    %rax,%rdx
  4024aa:	be 64 00 00 00       	mov    $0x64,%esi
  4024af:	48 89 cf             	mov    %rcx,%rdi
  4024b2:	e8 19 e4 ff ff       	callq  4008d0 <fgets@plt>
  4024b7:	48 8b 05 1a 3c 20 00 	mov    0x203c1a(%rip),%rax        # 6060d8 <stdin@@GLIBC_2.2.5+0x10>
  4024be:	48 05 f0 01 00 00    	add    $0x1f0,%rax
  4024c4:	48 83 c0 20          	add    $0x20,%rax
  4024c8:	be 64 00 00 00       	mov    $0x64,%esi
  4024cd:	48 89 c7             	mov    %rax,%rdi
  4024d0:	b8 00 00 00 00       	mov    $0x0,%eax
  4024d5:	e8 56 e6 ff ff       	callq  400b30 <rand@plt+0x1c0>
  4024da:	48 8b 05 f7 3b 20 00 	mov    0x203bf7(%rip),%rax        # 6060d8 <stdin@@GLIBC_2.2.5+0x10>
  4024e1:	48 05 f0 01 00 00    	add    $0x1f0,%rax
  4024e7:	48 c7 80 f0 00 00 00 	movq   $0x401530,0xf0(%rax)
  4024ee:	30 15 40 00 
  4024f2:	48 8b 05 ef 3b 20 00 	mov    0x203bef(%rip),%rax        # 6060e8 <stdin@@GLIBC_2.2.5+0x20>
  4024f9:	8b 10                	mov    (%rax),%edx
  4024fb:	83 c2 01             	add    $0x1,%edx
  4024fe:	89 10                	mov    %edx,(%rax)
  402500:	e9 86 02 00 00       	jmpq   40278b <rand@plt+0x1e1b>
  402505:	48 8b 05 dc 3b 20 00 	mov    0x203bdc(%rip),%rax        # 6060e8 <stdin@@GLIBC_2.2.5+0x20>
  40250c:	8b 00                	mov    (%rax),%eax
  40250e:	83 f8 01             	cmp    $0x1,%eax
  402511:	0f 85 52 01 00 00    	jne    402669 <rand@plt+0x1cf9>
  402517:	bf 3d 41 40 00       	mov    $0x40413d,%edi
  40251c:	b8 00 00 00 00       	mov    $0x0,%eax
  402521:	e8 bf 0d 00 00       	callq  4032e5 <rand@plt+0x2975>
  402526:	bf 2e 40 40 00       	mov    $0x40402e,%edi
  40252b:	b8 00 00 00 00       	mov    $0x0,%eax
  402530:	e8 b0 0d 00 00       	callq  4032e5 <rand@plt+0x2975>
  402535:	48 8b 05 84 3b 20 00 	mov    0x203b84(%rip),%rax        # 6060c0 <stdout@@GLIBC_2.2.5>
  40253c:	48 89 c7             	mov    %rax,%rdi
  40253f:	e8 dc e3 ff ff       	callq  400920 <fflush@plt>
  402544:	48 8b 15 7d 3b 20 00 	mov    0x203b7d(%rip),%rdx        # 6060c8 <stdin@@GLIBC_2.2.5>
  40254b:	48 8b 05 86 3b 20 00 	mov    0x203b86(%rip),%rax        # 6060d8 <stdin@@GLIBC_2.2.5+0x10>
  402552:	48 05 f8 00 00 00    	add    $0xf8,%rax
  402558:	be 14 00 00 00       	mov    $0x14,%esi
  40255d:	48 89 c7             	mov    %rax,%rdi
  402560:	e8 6b e3 ff ff       	callq  4008d0 <fgets@plt>
  402565:	48 8b 05 6c 3b 20 00 	mov    0x203b6c(%rip),%rax        # 6060d8 <stdin@@GLIBC_2.2.5+0x10>
  40256c:	48 05 f8 00 00 00    	add    $0xf8,%rax
  402572:	be 14 00 00 00       	mov    $0x14,%esi
  402577:	48 89 c7             	mov    %rax,%rdi
  40257a:	b8 00 00 00 00       	mov    $0x0,%eax
  40257f:	e8 ac e5 ff ff       	callq  400b30 <rand@plt+0x1c0>
  402584:	bf 3b 40 40 00       	mov    $0x40403b,%edi
  402589:	b8 00 00 00 00       	mov    $0x0,%eax
  40258e:	e8 52 0d 00 00       	callq  4032e5 <rand@plt+0x2975>
  402593:	48 8b 05 3e 3b 20 00 	mov    0x203b3e(%rip),%rax        # 6060d8 <stdin@@GLIBC_2.2.5+0x10>
  40259a:	48 05 f8 00 00 00    	add    $0xf8,%rax
  4025a0:	48 83 c0 18          	add    $0x18,%rax
  4025a4:	48 89 c7             	mov    %rax,%rdi
  4025a7:	e8 bb e9 ff ff       	callq  400f67 <rand@plt+0x5f7>
  4025ac:	bf 43 40 40 00       	mov    $0x404043,%edi
  4025b1:	b8 00 00 00 00       	mov    $0x0,%eax
  4025b6:	e8 2a 0d 00 00       	callq  4032e5 <rand@plt+0x2975>
  4025bb:	48 8b 05 16 3b 20 00 	mov    0x203b16(%rip),%rax        # 6060d8 <stdin@@GLIBC_2.2.5+0x10>
  4025c2:	48 05 f8 00 00 00    	add    $0xf8,%rax
  4025c8:	48 83 c0 1c          	add    $0x1c,%rax
  4025cc:	48 89 c7             	mov    %rax,%rdi
  4025cf:	e8 93 e9 ff ff       	callq  400f67 <rand@plt+0x5f7>
  4025d4:	bf 4a 40 40 00       	mov    $0x40404a,%edi
  4025d9:	b8 00 00 00 00       	mov    $0x0,%eax
  4025de:	e8 02 0d 00 00       	callq  4032e5 <rand@plt+0x2975>
  4025e3:	48 8b 05 d6 3a 20 00 	mov    0x203ad6(%rip),%rax        # 6060c0 <stdout@@GLIBC_2.2.5>
  4025ea:	48 89 c7             	mov    %rax,%rdi
  4025ed:	e8 2e e3 ff ff       	callq  400920 <fflush@plt>
  4025f2:	48 8b 05 cf 3a 20 00 	mov    0x203acf(%rip),%rax        # 6060c8 <stdin@@GLIBC_2.2.5>
  4025f9:	48 8b 15 d8 3a 20 00 	mov    0x203ad8(%rip),%rdx        # 6060d8 <stdin@@GLIBC_2.2.5+0x10>
  402600:	48 81 c2 f8 00 00 00 	add    $0xf8,%rdx
  402607:	48 8d 4a 20          	lea    0x20(%rdx),%rcx
  40260b:	48 89 c2             	mov    %rax,%rdx
  40260e:	be 64 00 00 00       	mov    $0x64,%esi
  402613:	48 89 cf             	mov    %rcx,%rdi
  402616:	e8 b5 e2 ff ff       	callq  4008d0 <fgets@plt>
  40261b:	48 8b 05 b6 3a 20 00 	mov    0x203ab6(%rip),%rax        # 6060d8 <stdin@@GLIBC_2.2.5+0x10>
  402622:	48 05 f8 00 00 00    	add    $0xf8,%rax
  402628:	48 83 c0 20          	add    $0x20,%rax
  40262c:	be 64 00 00 00       	mov    $0x64,%esi
  402631:	48 89 c7             	mov    %rax,%rdi
  402634:	b8 00 00 00 00       	mov    $0x0,%eax
  402639:	e8 f2 e4 ff ff       	callq  400b30 <rand@plt+0x1c0>
  40263e:	48 8b 05 93 3a 20 00 	mov    0x203a93(%rip),%rax        # 6060d8 <stdin@@GLIBC_2.2.5+0x10>
  402645:	48 05 f8 00 00 00    	add    $0xf8,%rax
  40264b:	48 c7 80 f0 00 00 00 	movq   $0x401530,0xf0(%rax)
  402652:	30 15 40 00 
  402656:	48 8b 05 8b 3a 20 00 	mov    0x203a8b(%rip),%rax        # 6060e8 <stdin@@GLIBC_2.2.5+0x20>
  40265d:	8b 10                	mov    (%rax),%edx
  40265f:	83 c2 01             	add    $0x1,%edx
  402662:	89 10                	mov    %edx,(%rax)
  402664:	e9 22 01 00 00       	jmpq   40278b <rand@plt+0x1e1b>
  402669:	bf 4a 41 40 00       	mov    $0x40414a,%edi
  40266e:	b8 00 00 00 00       	mov    $0x0,%eax
  402673:	e8 6d 0c 00 00       	callq  4032e5 <rand@plt+0x2975>
  402678:	bf 2e 40 40 00       	mov    $0x40402e,%edi
  40267d:	b8 00 00 00 00       	mov    $0x0,%eax
  402682:	e8 5e 0c 00 00       	callq  4032e5 <rand@plt+0x2975>
  402687:	48 8b 05 32 3a 20 00 	mov    0x203a32(%rip),%rax        # 6060c0 <stdout@@GLIBC_2.2.5>
  40268e:	48 89 c7             	mov    %rax,%rdi
  402691:	e8 8a e2 ff ff       	callq  400920 <fflush@plt>
  402696:	48 8b 15 2b 3a 20 00 	mov    0x203a2b(%rip),%rdx        # 6060c8 <stdin@@GLIBC_2.2.5>
  40269d:	48 8b 05 34 3a 20 00 	mov    0x203a34(%rip),%rax        # 6060d8 <stdin@@GLIBC_2.2.5+0x10>
  4026a4:	be 14 00 00 00       	mov    $0x14,%esi
  4026a9:	48 89 c7             	mov    %rax,%rdi
  4026ac:	e8 1f e2 ff ff       	callq  4008d0 <fgets@plt>
  4026b1:	48 8b 05 20 3a 20 00 	mov    0x203a20(%rip),%rax        # 6060d8 <stdin@@GLIBC_2.2.5+0x10>
  4026b8:	be 14 00 00 00       	mov    $0x14,%esi
  4026bd:	48 89 c7             	mov    %rax,%rdi
  4026c0:	b8 00 00 00 00       	mov    $0x0,%eax
  4026c5:	e8 66 e4 ff ff       	callq  400b30 <rand@plt+0x1c0>
  4026ca:	bf 3b 40 40 00       	mov    $0x40403b,%edi
  4026cf:	b8 00 00 00 00       	mov    $0x0,%eax
  4026d4:	e8 0c 0c 00 00       	callq  4032e5 <rand@plt+0x2975>
  4026d9:	48 8b 05 f8 39 20 00 	mov    0x2039f8(%rip),%rax        # 6060d8 <stdin@@GLIBC_2.2.5+0x10>
  4026e0:	48 83 c0 18          	add    $0x18,%rax
  4026e4:	48 89 c7             	mov    %rax,%rdi
  4026e7:	e8 7b e8 ff ff       	callq  400f67 <rand@plt+0x5f7>
  4026ec:	bf 43 40 40 00       	mov    $0x404043,%edi
  4026f1:	b8 00 00 00 00       	mov    $0x0,%eax
  4026f6:	e8 ea 0b 00 00       	callq  4032e5 <rand@plt+0x2975>
  4026fb:	48 8b 05 d6 39 20 00 	mov    0x2039d6(%rip),%rax        # 6060d8 <stdin@@GLIBC_2.2.5+0x10>
  402702:	48 83 c0 1c          	add    $0x1c,%rax
  402706:	48 89 c7             	mov    %rax,%rdi
  402709:	e8 59 e8 ff ff       	callq  400f67 <rand@plt+0x5f7>
  40270e:	bf 4a 40 40 00       	mov    $0x40404a,%edi
  402713:	b8 00 00 00 00       	mov    $0x0,%eax
  402718:	e8 c8 0b 00 00       	callq  4032e5 <rand@plt+0x2975>
  40271d:	48 8b 05 9c 39 20 00 	mov    0x20399c(%rip),%rax        # 6060c0 <stdout@@GLIBC_2.2.5>
  402724:	48 89 c7             	mov    %rax,%rdi
  402727:	e8 f4 e1 ff ff       	callq  400920 <fflush@plt>
  40272c:	48 8b 05 95 39 20 00 	mov    0x203995(%rip),%rax        # 6060c8 <stdin@@GLIBC_2.2.5>
  402733:	48 8b 15 9e 39 20 00 	mov    0x20399e(%rip),%rdx        # 6060d8 <stdin@@GLIBC_2.2.5+0x10>
  40273a:	48 8d 4a 20          	lea    0x20(%rdx),%rcx
  40273e:	48 89 c2             	mov    %rax,%rdx
  402741:	be 64 00 00 00       	mov    $0x64,%esi
  402746:	48 89 cf             	mov    %rcx,%rdi
  402749:	e8 82 e1 ff ff       	callq  4008d0 <fgets@plt>
  40274e:	48 8b 05 83 39 20 00 	mov    0x203983(%rip),%rax        # 6060d8 <stdin@@GLIBC_2.2.5+0x10>
  402755:	48 83 c0 20          	add    $0x20,%rax
  402759:	be 64 00 00 00       	mov    $0x64,%esi
  40275e:	48 89 c7             	mov    %rax,%rdi
  402761:	b8 00 00 00 00       	mov    $0x0,%eax
  402766:	e8 c5 e3 ff ff       	callq  400b30 <rand@plt+0x1c0>
  40276b:	48 8b 05 66 39 20 00 	mov    0x203966(%rip),%rax        # 6060d8 <stdin@@GLIBC_2.2.5+0x10>
  402772:	48 c7 80 f0 00 00 00 	movq   $0x401530,0xf0(%rax)
  402779:	30 15 40 00 
  40277d:	48 8b 05 64 39 20 00 	mov    0x203964(%rip),%rax        # 6060e8 <stdin@@GLIBC_2.2.5+0x20>
  402784:	8b 10                	mov    (%rax),%edx
  402786:	83 c2 01             	add    $0x1,%edx
  402789:	89 10                	mov    %edx,(%rax)
  40278b:	5d                   	pop    %rbp
  40278c:	c3                   	retq   
  40278d:	55                   	push   %rbp
  40278e:	48 89 e5             	mov    %rsp,%rbp
  402791:	bf 58 41 40 00       	mov    $0x404158,%edi
  402796:	b8 00 00 00 00       	mov    $0x0,%eax
  40279b:	e8 45 0b 00 00       	callq  4032e5 <rand@plt+0x2975>
  4027a0:	bf 70 41 40 00       	mov    $0x404170,%edi
  4027a5:	b8 00 00 00 00       	mov    $0x0,%eax
  4027aa:	e8 36 0b 00 00       	callq  4032e5 <rand@plt+0x2975>
  4027af:	bf 89 41 40 00       	mov    $0x404189,%edi
  4027b4:	b8 00 00 00 00       	mov    $0x0,%eax
  4027b9:	e8 27 0b 00 00       	callq  4032e5 <rand@plt+0x2975>
  4027be:	bf 98 41 40 00       	mov    $0x404198,%edi
  4027c3:	b8 00 00 00 00       	mov    $0x0,%eax
  4027c8:	e8 18 0b 00 00       	callq  4032e5 <rand@plt+0x2975>
  4027cd:	bf a4 41 40 00       	mov    $0x4041a4,%edi
  4027d2:	b8 00 00 00 00       	mov    $0x0,%eax
  4027d7:	e8 09 0b 00 00       	callq  4032e5 <rand@plt+0x2975>
  4027dc:	48 8b 05 0d 39 20 00 	mov    0x20390d(%rip),%rax        # 6060f0 <stdin@@GLIBC_2.2.5+0x28>
  4027e3:	48 89 c7             	mov    %rax,%rdi
  4027e6:	e8 7c e7 ff ff       	callq  400f67 <rand@plt+0x5f7>
  4027eb:	48 8b 05 fe 38 20 00 	mov    0x2038fe(%rip),%rax        # 6060f0 <stdin@@GLIBC_2.2.5+0x28>
  4027f2:	8b 00                	mov    (%rax),%eax
  4027f4:	83 f8 02             	cmp    $0x2,%eax
  4027f7:	74 16                	je     40280f <rand@plt+0x1e9f>
  4027f9:	83 f8 03             	cmp    $0x3,%eax
  4027fc:	74 1d                	je     40281b <rand@plt+0x1eab>
  4027fe:	83 f8 01             	cmp    $0x1,%eax
  402801:	75 24                	jne    402827 <rand@plt+0x1eb7>
  402803:	e8 35 e7 ff ff       	callq  400f3d <rand@plt+0x5cd>
  402808:	e8 3d 00 00 00       	callq  40284a <rand@plt+0x1eda>
  40280d:	eb 36                	jmp    402845 <rand@plt+0x1ed5>
  40280f:	e8 29 e7 ff ff       	callq  400f3d <rand@plt+0x5cd>
  402814:	e8 b2 03 00 00       	callq  402bcb <rand@plt+0x225b>
  402819:	eb 2a                	jmp    402845 <rand@plt+0x1ed5>
  40281b:	e8 1d e7 ff ff       	callq  400f3d <rand@plt+0x5cd>
  402820:	e8 28 e5 ff ff       	callq  400d4d <rand@plt+0x3dd>
  402825:	eb 1e                	jmp    402845 <rand@plt+0x1ed5>
  402827:	bf a9 41 40 00       	mov    $0x4041a9,%edi
  40282c:	b8 00 00 00 00       	mov    $0x0,%eax
  402831:	e8 af 0a 00 00       	callq  4032e5 <rand@plt+0x2975>
  402836:	e8 17 e7 ff ff       	callq  400f52 <rand@plt+0x5e2>
  40283b:	e8 0d e5 ff ff       	callq  400d4d <rand@plt+0x3dd>
  402840:	e9 4c ff ff ff       	jmpq   402791 <rand@plt+0x1e21>
  402845:	e9 47 ff ff ff       	jmpq   402791 <rand@plt+0x1e21>
  40284a:	55                   	push   %rbp
  40284b:	48 89 e5             	mov    %rsp,%rbp
  40284e:	48 8b 05 8b 38 20 00 	mov    0x20388b(%rip),%rax        # 6060e0 <stdin@@GLIBC_2.2.5+0x18>
  402855:	48 85 c0             	test   %rax,%rax
  402858:	75 6f                	jne    4028c9 <rand@plt+0x1f59>
  40285a:	48 8b 05 c7 38 20 00 	mov    0x2038c7(%rip),%rax        # 606128 <stdin@@GLIBC_2.2.5+0x60>
  402861:	48 85 c0             	test   %rax,%rax
  402864:	74 2d                	je     402893 <rand@plt+0x1f23>
  402866:	48 8b 05 bb 38 20 00 	mov    0x2038bb(%rip),%rax        # 606128 <stdin@@GLIBC_2.2.5+0x60>
  40286d:	8b 00                	mov    (%rax),%eax
  40286f:	48 98                	cltq   
  402871:	48 c1 e0 02          	shl    $0x2,%rax
  402875:	48 89 c2             	mov    %rax,%rdx
  402878:	48 c1 e2 05          	shl    $0x5,%rdx
  40287c:	48 29 c2             	sub    %rax,%rdx
  40287f:	48 89 d0             	mov    %rdx,%rax
  402882:	48 89 c7             	mov    %rax,%rdi
  402885:	e8 86 e0 ff ff       	callq  400910 <malloc@plt>
  40288a:	48 89 05 4f 38 20 00 	mov    %rax,0x20384f(%rip)        # 6060e0 <stdin@@GLIBC_2.2.5+0x18>
  402891:	eb 11                	jmp    4028a4 <rand@plt+0x1f34>
  402893:	bf 74 01 00 00       	mov    $0x174,%edi
  402898:	e8 73 e0 ff ff       	callq  400910 <malloc@plt>
  40289d:	48 89 05 3c 38 20 00 	mov    %rax,0x20383c(%rip)        # 6060e0 <stdin@@GLIBC_2.2.5+0x18>
  4028a4:	48 8b 05 35 38 20 00 	mov    0x203835(%rip),%rax        # 6060e0 <stdin@@GLIBC_2.2.5+0x18>
  4028ab:	48 85 c0             	test   %rax,%rax
  4028ae:	75 19                	jne    4028c9 <rand@plt+0x1f59>
  4028b0:	bf bb 41 40 00       	mov    $0x4041bb,%edi
  4028b5:	b8 00 00 00 00       	mov    $0x0,%eax
  4028ba:	e8 26 0a 00 00       	callq  4032e5 <rand@plt+0x2975>
  4028bf:	bf 01 00 00 00       	mov    $0x1,%edi
  4028c4:	e8 97 e0 ff ff       	callq  400960 <exit@plt>
  4028c9:	48 8b 05 38 38 20 00 	mov    0x203838(%rip),%rax        # 606108 <stdin@@GLIBC_2.2.5+0x40>
  4028d0:	48 85 c0             	test   %rax,%rax
  4028d3:	75 36                	jne    40290b <rand@plt+0x1f9b>
  4028d5:	bf 04 00 00 00       	mov    $0x4,%edi
  4028da:	e8 31 e0 ff ff       	callq  400910 <malloc@plt>
  4028df:	48 89 05 22 38 20 00 	mov    %rax,0x203822(%rip)        # 606108 <stdin@@GLIBC_2.2.5+0x40>
  4028e6:	48 8b 05 1b 38 20 00 	mov    0x20381b(%rip),%rax        # 606108 <stdin@@GLIBC_2.2.5+0x40>
  4028ed:	48 85 c0             	test   %rax,%rax
  4028f0:	75 19                	jne    40290b <rand@plt+0x1f9b>
  4028f2:	bf c3 41 40 00       	mov    $0x4041c3,%edi
  4028f7:	b8 00 00 00 00       	mov    $0x0,%eax
  4028fc:	e8 e4 09 00 00       	callq  4032e5 <rand@plt+0x2975>
  402901:	bf 01 00 00 00       	mov    $0x1,%edi
  402906:	e8 55 e0 ff ff       	callq  400960 <exit@plt>
  40290b:	48 8b 05 fe 37 20 00 	mov    0x2037fe(%rip),%rax        # 606110 <stdin@@GLIBC_2.2.5+0x48>
  402912:	48 85 c0             	test   %rax,%rax
  402915:	75 36                	jne    40294d <rand@plt+0x1fdd>
  402917:	bf 04 00 00 00       	mov    $0x4,%edi
  40291c:	e8 ef df ff ff       	callq  400910 <malloc@plt>
  402921:	48 89 05 e8 37 20 00 	mov    %rax,0x2037e8(%rip)        # 606110 <stdin@@GLIBC_2.2.5+0x48>
  402928:	48 8b 05 e1 37 20 00 	mov    0x2037e1(%rip),%rax        # 606110 <stdin@@GLIBC_2.2.5+0x48>
  40292f:	48 85 c0             	test   %rax,%rax
  402932:	75 19                	jne    40294d <rand@plt+0x1fdd>
  402934:	bf c3 41 40 00       	mov    $0x4041c3,%edi
  402939:	b8 00 00 00 00       	mov    $0x0,%eax
  40293e:	e8 a2 09 00 00       	callq  4032e5 <rand@plt+0x2975>
  402943:	bf 01 00 00 00       	mov    $0x1,%edi
  402948:	e8 13 e0 ff ff       	callq  400960 <exit@plt>
  40294d:	48 8b 05 c4 37 20 00 	mov    0x2037c4(%rip),%rax        # 606118 <stdin@@GLIBC_2.2.5+0x50>
  402954:	48 85 c0             	test   %rax,%rax
  402957:	75 36                	jne    40298f <rand@plt+0x201f>
  402959:	bf 04 00 00 00       	mov    $0x4,%edi
  40295e:	e8 ad df ff ff       	callq  400910 <malloc@plt>
  402963:	48 89 05 ae 37 20 00 	mov    %rax,0x2037ae(%rip)        # 606118 <stdin@@GLIBC_2.2.5+0x50>
  40296a:	48 8b 05 a7 37 20 00 	mov    0x2037a7(%rip),%rax        # 606118 <stdin@@GLIBC_2.2.5+0x50>
  402971:	48 85 c0             	test   %rax,%rax
  402974:	75 19                	jne    40298f <rand@plt+0x201f>
  402976:	bf c3 41 40 00       	mov    $0x4041c3,%edi
  40297b:	b8 00 00 00 00       	mov    $0x0,%eax
  402980:	e8 60 09 00 00       	callq  4032e5 <rand@plt+0x2975>
  402985:	bf 01 00 00 00       	mov    $0x1,%edi
  40298a:	e8 d1 df ff ff       	callq  400960 <exit@plt>
  40298f:	48 8b 05 72 37 20 00 	mov    0x203772(%rip),%rax        # 606108 <stdin@@GLIBC_2.2.5+0x40>
  402996:	c7 00 64 00 00 00    	movl   $0x64,(%rax)
  40299c:	48 8b 05 6d 37 20 00 	mov    0x20376d(%rip),%rax        # 606110 <stdin@@GLIBC_2.2.5+0x48>
  4029a3:	c7 00 00 00 00 00    	movl   $0x0,(%rax)
  4029a9:	48 8b 05 68 37 20 00 	mov    0x203768(%rip),%rax        # 606118 <stdin@@GLIBC_2.2.5+0x50>
  4029b0:	48 8b 15 51 37 20 00 	mov    0x203751(%rip),%rdx        # 606108 <stdin@@GLIBC_2.2.5+0x40>
  4029b7:	8b 12                	mov    (%rdx),%edx
  4029b9:	89 10                	mov    %edx,(%rax)
  4029bb:	bf d2 41 40 00       	mov    $0x4041d2,%edi
  4029c0:	b8 00 00 00 00       	mov    $0x0,%eax
  4029c5:	e8 1b 09 00 00       	callq  4032e5 <rand@plt+0x2975>
  4029ca:	bf f0 41 40 00       	mov    $0x4041f0,%edi
  4029cf:	b8 00 00 00 00       	mov    $0x0,%eax
  4029d4:	e8 0c 09 00 00       	callq  4032e5 <rand@plt+0x2975>
  4029d9:	bf 10 42 40 00       	mov    $0x404210,%edi
  4029de:	b8 00 00 00 00       	mov    $0x0,%eax
  4029e3:	e8 fd 08 00 00       	callq  4032e5 <rand@plt+0x2975>
  4029e8:	e8 2c 00 00 00       	callq  402a19 <rand@plt+0x20a9>
  4029ed:	b8 00 00 00 00       	mov    $0x0,%eax
  4029f2:	5d                   	pop    %rbp
  4029f3:	c3                   	retq   
  4029f4:	55                   	push   %rbp
  4029f5:	48 89 e5             	mov    %rsp,%rbp
  4029f8:	48 8b 05 09 37 20 00 	mov    0x203709(%rip),%rax        # 606108 <stdin@@GLIBC_2.2.5+0x40>
  4029ff:	8b 00                	mov    (%rax),%eax
  402a01:	89 c6                	mov    %eax,%esi
  402a03:	bf 2a 42 40 00       	mov    $0x40422a,%edi
  402a08:	b8 00 00 00 00       	mov    $0x0,%eax
  402a0d:	e8 d3 08 00 00       	callq  4032e5 <rand@plt+0x2975>
  402a12:	b8 00 00 00 00       	mov    $0x0,%eax
  402a17:	5d                   	pop    %rbp
  402a18:	c3                   	retq   
  402a19:	55                   	push   %rbp
  402a1a:	48 89 e5             	mov    %rsp,%rbp
  402a1d:	bf 3c 42 40 00       	mov    $0x40423c,%edi
  402a22:	b8 00 00 00 00       	mov    $0x0,%eax
  402a27:	e8 2a 0a 00 00       	callq  403456 <rand@plt+0x2ae6>
  402a2c:	48 8b 05 d5 36 20 00 	mov    0x2036d5(%rip),%rax        # 606108 <stdin@@GLIBC_2.2.5+0x40>
  402a33:	8b 00                	mov    (%rax),%eax
  402a35:	85 c0                	test   %eax,%eax
  402a37:	75 0a                	jne    402a43 <rand@plt+0x20d3>
  402a39:	e8 8e 00 00 00       	callq  402acc <rand@plt+0x215c>
  402a3e:	e8 4a fd ff ff       	callq  40278d <rand@plt+0x1e1d>
  402a43:	e8 ac ff ff ff       	callq  4029f4 <rand@plt+0x2084>
  402a48:	bf 48 42 40 00       	mov    $0x404248,%edi
  402a4d:	b8 00 00 00 00       	mov    $0x0,%eax
  402a52:	e8 8e 08 00 00       	callq  4032e5 <rand@plt+0x2975>
  402a57:	bf a4 41 40 00       	mov    $0x4041a4,%edi
  402a5c:	b8 00 00 00 00       	mov    $0x0,%eax
  402a61:	e8 7f 08 00 00       	callq  4032e5 <rand@plt+0x2975>
  402a66:	48 8b 05 a3 36 20 00 	mov    0x2036a3(%rip),%rax        # 606110 <stdin@@GLIBC_2.2.5+0x48>
  402a6d:	48 89 c7             	mov    %rax,%rdi
  402a70:	e8 f2 e4 ff ff       	callq  400f67 <rand@plt+0x5f7>
  402a75:	48 8b 05 94 36 20 00 	mov    0x203694(%rip),%rax        # 606110 <stdin@@GLIBC_2.2.5+0x48>
  402a7c:	8b 10                	mov    (%rax),%edx
  402a7e:	48 8b 05 83 36 20 00 	mov    0x203683(%rip),%rax        # 606108 <stdin@@GLIBC_2.2.5+0x40>
  402a85:	8b 00                	mov    (%rax),%eax
  402a87:	39 c2                	cmp    %eax,%edx
  402a89:	7e 16                	jle    402aa1 <rand@plt+0x2131>
  402a8b:	bf 5a 42 40 00       	mov    $0x40425a,%edi
  402a90:	b8 00 00 00 00       	mov    $0x0,%eax
  402a95:	e8 4b 08 00 00       	callq  4032e5 <rand@plt+0x2975>
  402a9a:	b8 00 00 00 00       	mov    $0x0,%eax
  402a9f:	eb 29                	jmp    402aca <rand@plt+0x215a>
  402aa1:	48 8b 05 68 36 20 00 	mov    0x203668(%rip),%rax        # 606110 <stdin@@GLIBC_2.2.5+0x48>
  402aa8:	8b 00                	mov    (%rax),%eax
  402aaa:	89 c6                	mov    %eax,%esi
  402aac:	bf 61 42 40 00       	mov    $0x404261,%edi
  402ab1:	b8 00 00 00 00       	mov    $0x0,%eax
  402ab6:	e8 2a 08 00 00       	callq  4032e5 <rand@plt+0x2975>
  402abb:	b8 00 00 00 00       	mov    $0x0,%eax
  402ac0:	e8 1a 06 00 00       	callq  4030df <rand@plt+0x276f>
  402ac5:	b8 00 00 00 00       	mov    $0x0,%eax
  402aca:	5d                   	pop    %rbp
  402acb:	c3                   	retq   
  402acc:	55                   	push   %rbp
  402acd:	48 89 e5             	mov    %rsp,%rbp
  402ad0:	bf 73 42 40 00       	mov    $0x404273,%edi
  402ad5:	b8 00 00 00 00       	mov    $0x0,%eax
  402ada:	e8 06 08 00 00       	callq  4032e5 <rand@plt+0x2975>
  402adf:	48 8b 05 1a 36 20 00 	mov    0x20361a(%rip),%rax        # 606100 <stdin@@GLIBC_2.2.5+0x38>
  402ae6:	48 85 c0             	test   %rax,%rax
  402ae9:	75 63                	jne    402b4e <rand@plt+0x21de>
  402aeb:	bf 04 00 00 00       	mov    $0x4,%edi
  402af0:	e8 1b de ff ff       	callq  400910 <malloc@plt>
  402af5:	48 89 05 04 36 20 00 	mov    %rax,0x203604(%rip)        # 606100 <stdin@@GLIBC_2.2.5+0x38>
  402afc:	48 8b 05 fd 35 20 00 	mov    0x2035fd(%rip),%rax        # 606100 <stdin@@GLIBC_2.2.5+0x38>
  402b03:	48 85 c0             	test   %rax,%rax
  402b06:	75 19                	jne    402b21 <rand@plt+0x21b1>
  402b08:	bf bb 41 40 00       	mov    $0x4041bb,%edi
  402b0d:	b8 00 00 00 00       	mov    $0x0,%eax
  402b12:	e8 ce 07 00 00       	callq  4032e5 <rand@plt+0x2975>
  402b17:	bf 01 00 00 00       	mov    $0x1,%edi
  402b1c:	e8 3f de ff ff       	callq  400960 <exit@plt>
  402b21:	48 8b 05 00 36 20 00 	mov    0x203600(%rip),%rax        # 606128 <stdin@@GLIBC_2.2.5+0x60>
  402b28:	48 85 c0             	test   %rax,%rax
  402b2b:	74 14                	je     402b41 <rand@plt+0x21d1>
  402b2d:	48 8b 05 cc 35 20 00 	mov    0x2035cc(%rip),%rax        # 606100 <stdin@@GLIBC_2.2.5+0x38>
  402b34:	48 8b 15 ed 35 20 00 	mov    0x2035ed(%rip),%rdx        # 606128 <stdin@@GLIBC_2.2.5+0x60>
  402b3b:	8b 12                	mov    (%rdx),%edx
  402b3d:	89 10                	mov    %edx,(%rax)
  402b3f:	eb 0d                	jmp    402b4e <rand@plt+0x21de>
  402b41:	48 8b 05 b8 35 20 00 	mov    0x2035b8(%rip),%rax        # 606100 <stdin@@GLIBC_2.2.5+0x38>
  402b48:	c7 00 03 00 00 00    	movl   $0x3,(%rax)
  402b4e:	48 8b 05 cb 35 20 00 	mov    0x2035cb(%rip),%rax        # 606120 <stdin@@GLIBC_2.2.5+0x58>
  402b55:	48 85 c0             	test   %rax,%rax
  402b58:	75 43                	jne    402b9d <rand@plt+0x222d>
  402b5a:	bf 04 00 00 00       	mov    $0x4,%edi
  402b5f:	e8 ac dd ff ff       	callq  400910 <malloc@plt>
  402b64:	48 89 05 b5 35 20 00 	mov    %rax,0x2035b5(%rip)        # 606120 <stdin@@GLIBC_2.2.5+0x58>
  402b6b:	48 8b 05 ae 35 20 00 	mov    0x2035ae(%rip),%rax        # 606120 <stdin@@GLIBC_2.2.5+0x58>
  402b72:	48 85 c0             	test   %rax,%rax
  402b75:	75 19                	jne    402b90 <rand@plt+0x2220>
  402b77:	bf bb 41 40 00       	mov    $0x4041bb,%edi
  402b7c:	b8 00 00 00 00       	mov    $0x0,%eax
  402b81:	e8 5f 07 00 00       	callq  4032e5 <rand@plt+0x2975>
  402b86:	bf 01 00 00 00       	mov    $0x1,%edi
  402b8b:	e8 d0 dd ff ff       	callq  400960 <exit@plt>
  402b90:	48 8b 05 89 35 20 00 	mov    0x203589(%rip),%rax        # 606120 <stdin@@GLIBC_2.2.5+0x58>
  402b97:	c7 00 00 00 00 00    	movl   $0x0,(%rax)
  402b9d:	bf 84 42 40 00       	mov    $0x404284,%edi
  402ba2:	b8 00 00 00 00       	mov    $0x0,%eax
  402ba7:	e8 39 07 00 00       	callq  4032e5 <rand@plt+0x2975>
  402bac:	e8 38 01 00 00       	callq  402ce9 <rand@plt+0x2379>
  402bb1:	85 c0                	test   %eax,%eax
  402bb3:	74 0f                	je     402bc4 <rand@plt+0x2254>
  402bb5:	bf ff ff ff ff       	mov    $0xffffffff,%edi
  402bba:	b8 00 00 00 00       	mov    $0x0,%eax
  402bbf:	e8 ed 01 00 00       	callq  402db1 <rand@plt+0x2441>
  402bc4:	b8 00 00 00 00       	mov    $0x0,%eax
  402bc9:	5d                   	pop    %rbp
  402bca:	c3                   	retq   
  402bcb:	55                   	push   %rbp
  402bcc:	48 89 e5             	mov    %rsp,%rbp
  402bcf:	48 83 ec 10          	sub    $0x10,%rsp
  402bd3:	48 8b 05 46 35 20 00 	mov    0x203546(%rip),%rax        # 606120 <stdin@@GLIBC_2.2.5+0x58>
  402bda:	48 85 c0             	test   %rax,%rax
  402bdd:	75 19                	jne    402bf8 <rand@plt+0x2288>
  402bdf:	bf 93 42 40 00       	mov    $0x404293,%edi
  402be4:	b8 00 00 00 00       	mov    $0x0,%eax
  402be9:	e8 f7 06 00 00       	callq  4032e5 <rand@plt+0x2975>
  402bee:	b8 00 00 00 00       	mov    $0x0,%eax
  402bf3:	e9 ef 00 00 00       	jmpq   402ce7 <rand@plt+0x2377>
  402bf8:	c7 45 fc 00 00 00 00 	movl   $0x0,-0x4(%rbp)
  402bff:	e9 bd 00 00 00       	jmpq   402cc1 <rand@plt+0x2351>
  402c04:	bf a8 42 40 00       	mov    $0x4042a8,%edi
  402c09:	b8 00 00 00 00       	mov    $0x0,%eax
  402c0e:	e8 d2 06 00 00       	callq  4032e5 <rand@plt+0x2975>
  402c13:	48 8b 15 c6 34 20 00 	mov    0x2034c6(%rip),%rdx        # 6060e0 <stdin@@GLIBC_2.2.5+0x18>
  402c1a:	8b 45 fc             	mov    -0x4(%rbp),%eax
  402c1d:	48 98                	cltq   
  402c1f:	48 c1 e0 02          	shl    $0x2,%rax
  402c23:	48 89 c1             	mov    %rax,%rcx
  402c26:	48 c1 e1 05          	shl    $0x5,%rcx
  402c2a:	48 29 c1             	sub    %rax,%rcx
  402c2d:	48 89 c8             	mov    %rcx,%rax
  402c30:	48 01 d0             	add    %rdx,%rax
  402c33:	8b 48 78             	mov    0x78(%rax),%ecx
  402c36:	48 8b 15 a3 34 20 00 	mov    0x2034a3(%rip),%rdx        # 6060e0 <stdin@@GLIBC_2.2.5+0x18>
  402c3d:	8b 45 fc             	mov    -0x4(%rbp),%eax
  402c40:	48 98                	cltq   
  402c42:	48 c1 e0 02          	shl    $0x2,%rax
  402c46:	48 89 c6             	mov    %rax,%rsi
  402c49:	48 c1 e6 05          	shl    $0x5,%rsi
  402c4d:	48 29 c6             	sub    %rax,%rsi
  402c50:	48 89 f0             	mov    %rsi,%rax
  402c53:	48 01 d0             	add    %rdx,%rax
  402c56:	48 8d 78 20          	lea    0x20(%rax),%rdi
  402c5a:	48 8b 15 7f 34 20 00 	mov    0x20347f(%rip),%rdx        # 6060e0 <stdin@@GLIBC_2.2.5+0x18>
  402c61:	8b 45 fc             	mov    -0x4(%rbp),%eax
  402c64:	48 98                	cltq   
  402c66:	48 c1 e0 02          	shl    $0x2,%rax
  402c6a:	48 89 c6             	mov    %rax,%rsi
  402c6d:	48 c1 e6 05          	shl    $0x5,%rsi
  402c71:	48 29 c6             	sub    %rax,%rsi
  402c74:	48 89 f0             	mov    %rsi,%rax
  402c77:	48 01 d0             	add    %rdx,%rax
  402c7a:	8b 50 1c             	mov    0x1c(%rax),%edx
  402c7d:	48 8b 35 5c 34 20 00 	mov    0x20345c(%rip),%rsi        # 6060e0 <stdin@@GLIBC_2.2.5+0x18>
  402c84:	8b 45 fc             	mov    -0x4(%rbp),%eax
  402c87:	48 98                	cltq   
  402c89:	48 c1 e0 02          	shl    $0x2,%rax
  402c8d:	49 89 c0             	mov    %rax,%r8
  402c90:	49 c1 e0 05          	shl    $0x5,%r8
  402c94:	49 29 c0             	sub    %rax,%r8
  402c97:	4c 89 c0             	mov    %r8,%rax
  402c9a:	48 01 f0             	add    %rsi,%rax
  402c9d:	8b 75 fc             	mov    -0x4(%rbp),%esi
  402ca0:	83 c6 01             	add    $0x1,%esi
  402ca3:	41 89 c9             	mov    %ecx,%r9d
  402ca6:	49 89 f8             	mov    %rdi,%r8
  402ca9:	89 d1                	mov    %edx,%ecx
  402cab:	48 89 c2             	mov    %rax,%rdx
  402cae:	bf 4d 43 40 00       	mov    $0x40434d,%edi
  402cb3:	b8 00 00 00 00       	mov    $0x0,%eax
  402cb8:	e8 28 06 00 00       	callq  4032e5 <rand@plt+0x2975>
  402cbd:	83 45 fc 01          	addl   $0x1,-0x4(%rbp)
  402cc1:	48 8b 05 58 34 20 00 	mov    0x203458(%rip),%rax        # 606120 <stdin@@GLIBC_2.2.5+0x58>
  402cc8:	8b 00                	mov    (%rax),%eax
  402cca:	3b 45 fc             	cmp    -0x4(%rbp),%eax
  402ccd:	0f 8f 31 ff ff ff    	jg     402c04 <rand@plt+0x2294>
  402cd3:	bf 70 43 40 00       	mov    $0x404370,%edi
  402cd8:	b8 00 00 00 00       	mov    $0x0,%eax
  402cdd:	e8 03 06 00 00       	callq  4032e5 <rand@plt+0x2975>
  402ce2:	b8 00 00 00 00       	mov    $0x0,%eax
  402ce7:	c9                   	leaveq 
  402ce8:	c3                   	retq   
  402ce9:	55                   	push   %rbp
  402cea:	48 89 e5             	mov    %rsp,%rbp
  402ced:	48 83 ec 10          	sub    $0x10,%rsp
  402cf1:	48 8b 05 28 34 20 00 	mov    0x203428(%rip),%rax        # 606120 <stdin@@GLIBC_2.2.5+0x58>
  402cf8:	8b 00                	mov    (%rax),%eax
  402cfa:	85 c0                	test   %eax,%eax
  402cfc:	75 0a                	jne    402d08 <rand@plt+0x2398>
  402cfe:	b8 01 00 00 00       	mov    $0x1,%eax
  402d03:	e9 a7 00 00 00       	jmpq   402daf <rand@plt+0x243f>
  402d08:	c7 45 fc 00 00 00 00 	movl   $0x0,-0x4(%rbp)
  402d0f:	e9 84 00 00 00       	jmpq   402d98 <rand@plt+0x2428>
  402d14:	48 8b 15 c5 33 20 00 	mov    0x2033c5(%rip),%rdx        # 6060e0 <stdin@@GLIBC_2.2.5+0x18>
  402d1b:	8b 45 fc             	mov    -0x4(%rbp),%eax
  402d1e:	48 98                	cltq   
  402d20:	48 c1 e0 02          	shl    $0x2,%rax
  402d24:	48 89 c1             	mov    %rax,%rcx
  402d27:	48 c1 e1 05          	shl    $0x5,%rcx
  402d2b:	48 29 c1             	sub    %rax,%rcx
  402d2e:	48 89 c8             	mov    %rcx,%rax
  402d31:	48 01 d0             	add    %rdx,%rax
  402d34:	8b 50 78             	mov    0x78(%rax),%edx
  402d37:	48 8b 05 da 33 20 00 	mov    0x2033da(%rip),%rax        # 606118 <stdin@@GLIBC_2.2.5+0x50>
  402d3e:	8b 00                	mov    (%rax),%eax
  402d40:	39 c2                	cmp    %eax,%edx
  402d42:	7d 33                	jge    402d77 <rand@plt+0x2407>
  402d44:	48 8b 05 d5 33 20 00 	mov    0x2033d5(%rip),%rax        # 606120 <stdin@@GLIBC_2.2.5+0x58>
  402d4b:	8b 10                	mov    (%rax),%edx
  402d4d:	48 8b 05 ac 33 20 00 	mov    0x2033ac(%rip),%rax        # 606100 <stdin@@GLIBC_2.2.5+0x38>
  402d54:	8b 00                	mov    (%rax),%eax
  402d56:	39 c2                	cmp    %eax,%edx
  402d58:	7c 16                	jl     402d70 <rand@plt+0x2400>
  402d5a:	8b 45 fc             	mov    -0x4(%rbp),%eax
  402d5d:	89 c7                	mov    %eax,%edi
  402d5f:	b8 00 00 00 00       	mov    $0x0,%eax
  402d64:	e8 48 00 00 00       	callq  402db1 <rand@plt+0x2441>
  402d69:	b8 00 00 00 00       	mov    $0x0,%eax
  402d6e:	eb 3f                	jmp    402daf <rand@plt+0x243f>
  402d70:	b8 01 00 00 00       	mov    $0x1,%eax
  402d75:	eb 38                	jmp    402daf <rand@plt+0x243f>
  402d77:	48 8b 05 a2 33 20 00 	mov    0x2033a2(%rip),%rax        # 606120 <stdin@@GLIBC_2.2.5+0x58>
  402d7e:	8b 10                	mov    (%rax),%edx
  402d80:	48 8b 05 79 33 20 00 	mov    0x203379(%rip),%rax        # 606100 <stdin@@GLIBC_2.2.5+0x38>
  402d87:	8b 00                	mov    (%rax),%eax
  402d89:	39 c2                	cmp    %eax,%edx
  402d8b:	7d 07                	jge    402d94 <rand@plt+0x2424>
  402d8d:	b8 01 00 00 00       	mov    $0x1,%eax
  402d92:	eb 1b                	jmp    402daf <rand@plt+0x243f>
  402d94:	83 45 fc 01          	addl   $0x1,-0x4(%rbp)
  402d98:	48 8b 05 81 33 20 00 	mov    0x203381(%rip),%rax        # 606120 <stdin@@GLIBC_2.2.5+0x58>
  402d9f:	8b 00                	mov    (%rax),%eax
  402da1:	3b 45 fc             	cmp    -0x4(%rbp),%eax
  402da4:	0f 8f 6a ff ff ff    	jg     402d14 <rand@plt+0x23a4>
  402daa:	b8 00 00 00 00       	mov    $0x0,%eax
  402daf:	c9                   	leaveq 
  402db0:	c3                   	retq   
  402db1:	55                   	push   %rbp
  402db2:	48 89 e5             	mov    %rsp,%rbp
  402db5:	48 83 ec 20          	sub    $0x20,%rsp
  402db9:	89 7d ec             	mov    %edi,-0x14(%rbp)
  402dbc:	c7 45 fc 00 00 00 00 	movl   $0x0,-0x4(%rbp)
  402dc3:	83 7d ec ff          	cmpl   $0xffffffff,-0x14(%rbp)
  402dc7:	0f 85 75 01 00 00    	jne    402f42 <rand@plt+0x25d2>
  402dcd:	bf 1d 44 40 00       	mov    $0x40441d,%edi
  402dd2:	b8 00 00 00 00       	mov    $0x0,%eax
  402dd7:	e8 09 05 00 00       	callq  4032e5 <rand@plt+0x2975>
  402ddc:	bf 2e 44 40 00       	mov    $0x40442e,%edi
  402de1:	b8 00 00 00 00       	mov    $0x0,%eax
  402de6:	e8 fa 04 00 00       	callq  4032e5 <rand@plt+0x2975>
  402deb:	48 8b 05 ce 32 20 00 	mov    0x2032ce(%rip),%rax        # 6060c0 <stdout@@GLIBC_2.2.5>
  402df2:	48 89 c7             	mov    %rax,%rdi
  402df5:	e8 26 db ff ff       	callq  400920 <fflush@plt>
  402dfa:	48 8b 05 c7 32 20 00 	mov    0x2032c7(%rip),%rax        # 6060c8 <stdin@@GLIBC_2.2.5>
  402e01:	48 89 c7             	mov    %rax,%rdi
  402e04:	e8 17 db ff ff       	callq  400920 <fflush@plt>
  402e09:	48 8b 15 b8 32 20 00 	mov    0x2032b8(%rip),%rdx        # 6060c8 <stdin@@GLIBC_2.2.5>
  402e10:	48 8b 0d c9 32 20 00 	mov    0x2032c9(%rip),%rcx        # 6060e0 <stdin@@GLIBC_2.2.5+0x18>
  402e17:	48 8b 05 02 33 20 00 	mov    0x203302(%rip),%rax        # 606120 <stdin@@GLIBC_2.2.5+0x58>
  402e1e:	8b 00                	mov    (%rax),%eax
  402e20:	48 98                	cltq   
  402e22:	48 c1 e0 02          	shl    $0x2,%rax
  402e26:	48 89 c6             	mov    %rax,%rsi
  402e29:	48 c1 e6 05          	shl    $0x5,%rsi
  402e2d:	48 29 c6             	sub    %rax,%rsi
  402e30:	48 89 f0             	mov    %rsi,%rax
  402e33:	48 01 c8             	add    %rcx,%rax
  402e36:	48 83 c0 20          	add    $0x20,%rax
  402e3a:	be 59 00 00 00       	mov    $0x59,%esi
  402e3f:	48 89 c7             	mov    %rax,%rdi
  402e42:	e8 89 da ff ff       	callq  4008d0 <fgets@plt>
  402e47:	48 8b 15 92 32 20 00 	mov    0x203292(%rip),%rdx        # 6060e0 <stdin@@GLIBC_2.2.5+0x18>
  402e4e:	48 8b 05 cb 32 20 00 	mov    0x2032cb(%rip),%rax        # 606120 <stdin@@GLIBC_2.2.5+0x58>
  402e55:	8b 00                	mov    (%rax),%eax
  402e57:	48 98                	cltq   
  402e59:	48 c1 e0 02          	shl    $0x2,%rax
  402e5d:	48 89 c1             	mov    %rax,%rcx
  402e60:	48 c1 e1 05          	shl    $0x5,%rcx
  402e64:	48 29 c1             	sub    %rax,%rcx
  402e67:	48 89 c8             	mov    %rcx,%rax
  402e6a:	48 01 d0             	add    %rdx,%rax
  402e6d:	48 83 c0 20          	add    $0x20,%rax
  402e71:	be 50 00 00 00       	mov    $0x50,%esi
  402e76:	48 89 c7             	mov    %rax,%rdi
  402e79:	b8 00 00 00 00       	mov    $0x0,%eax
  402e7e:	e8 ad dc ff ff       	callq  400b30 <rand@plt+0x1c0>
  402e83:	48 8b 05 6e 32 20 00 	mov    0x20326e(%rip),%rax        # 6060f8 <stdin@@GLIBC_2.2.5+0x30>
  402e8a:	48 89 c2             	mov    %rax,%rdx
  402e8d:	48 8b 0d 4c 32 20 00 	mov    0x20324c(%rip),%rcx        # 6060e0 <stdin@@GLIBC_2.2.5+0x18>
  402e94:	48 8b 05 85 32 20 00 	mov    0x203285(%rip),%rax        # 606120 <stdin@@GLIBC_2.2.5+0x58>
  402e9b:	8b 00                	mov    (%rax),%eax
  402e9d:	48 98                	cltq   
  402e9f:	48 c1 e0 02          	shl    $0x2,%rax
  402ea3:	48 89 c6             	mov    %rax,%rsi
  402ea6:	48 c1 e6 05          	shl    $0x5,%rsi
  402eaa:	48 29 c6             	sub    %rax,%rsi
  402ead:	48 89 f0             	mov    %rsi,%rax
  402eb0:	48 01 c8             	add    %rcx,%rax
  402eb3:	48 89 d6             	mov    %rdx,%rsi
  402eb6:	48 89 c7             	mov    %rax,%rdi
  402eb9:	e8 a2 d9 ff ff       	callq  400860 <strcpy@plt>
  402ebe:	48 8b 15 1b 32 20 00 	mov    0x20321b(%rip),%rdx        # 6060e0 <stdin@@GLIBC_2.2.5+0x18>
  402ec5:	48 8b 05 54 32 20 00 	mov    0x203254(%rip),%rax        # 606120 <stdin@@GLIBC_2.2.5+0x58>
  402ecc:	8b 00                	mov    (%rax),%eax
  402ece:	48 98                	cltq   
  402ed0:	48 c1 e0 02          	shl    $0x2,%rax
  402ed4:	48 89 c1             	mov    %rax,%rcx
  402ed7:	48 c1 e1 05          	shl    $0x5,%rcx
  402edb:	48 29 c1             	sub    %rax,%rcx
  402ede:	48 89 c8             	mov    %rcx,%rax
  402ee1:	48 01 c2             	add    %rax,%rdx
  402ee4:	48 8b 05 0d 32 20 00 	mov    0x20320d(%rip),%rax        # 6060f8 <stdin@@GLIBC_2.2.5+0x30>
  402eeb:	8b 40 14             	mov    0x14(%rax),%eax
  402eee:	89 42 1c             	mov    %eax,0x1c(%rdx)
  402ef1:	48 8b 15 e8 31 20 00 	mov    0x2031e8(%rip),%rdx        # 6060e0 <stdin@@GLIBC_2.2.5+0x18>
  402ef8:	48 8b 05 21 32 20 00 	mov    0x203221(%rip),%rax        # 606120 <stdin@@GLIBC_2.2.5+0x58>
  402eff:	8b 00                	mov    (%rax),%eax
  402f01:	48 98                	cltq   
  402f03:	48 c1 e0 02          	shl    $0x2,%rax
  402f07:	48 89 c1             	mov    %rax,%rcx
  402f0a:	48 c1 e1 05          	shl    $0x5,%rcx
  402f0e:	48 29 c1             	sub    %rax,%rcx
  402f11:	48 89 c8             	mov    %rcx,%rax
  402f14:	48 01 c2             	add    %rax,%rdx
  402f17:	48 8b 05 fa 31 20 00 	mov    0x2031fa(%rip),%rax        # 606118 <stdin@@GLIBC_2.2.5+0x50>
  402f1e:	8b 00                	mov    (%rax),%eax
  402f20:	89 42 78             	mov    %eax,0x78(%rdx)
  402f23:	48 8b 05 f6 31 20 00 	mov    0x2031f6(%rip),%rax        # 606120 <stdin@@GLIBC_2.2.5+0x58>
  402f2a:	8b 00                	mov    (%rax),%eax
  402f2c:	89 45 fc             	mov    %eax,-0x4(%rbp)
  402f2f:	48 8b 05 ea 31 20 00 	mov    0x2031ea(%rip),%rax        # 606120 <stdin@@GLIBC_2.2.5+0x58>
  402f36:	8b 10                	mov    (%rax),%edx
  402f38:	83 c2 01             	add    $0x1,%edx
  402f3b:	89 10                	mov    %edx,(%rax)
  402f3d:	e9 dc 00 00 00       	jmpq   40301e <rand@plt+0x26ae>
  402f42:	bf 44 44 40 00       	mov    $0x404444,%edi
  402f47:	b8 00 00 00 00       	mov    $0x0,%eax
  402f4c:	e8 94 03 00 00       	callq  4032e5 <rand@plt+0x2975>
  402f51:	bf 2e 44 40 00       	mov    $0x40442e,%edi
  402f56:	b8 00 00 00 00       	mov    $0x0,%eax
  402f5b:	e8 85 03 00 00       	callq  4032e5 <rand@plt+0x2975>
  402f60:	48 8b 05 59 31 20 00 	mov    0x203159(%rip),%rax        # 6060c0 <stdout@@GLIBC_2.2.5>
  402f67:	48 89 c7             	mov    %rax,%rdi
  402f6a:	e8 b1 d9 ff ff       	callq  400920 <fflush@plt>
  402f6f:	48 8b 05 52 31 20 00 	mov    0x203152(%rip),%rax        # 6060c8 <stdin@@GLIBC_2.2.5>
  402f76:	48 89 c7             	mov    %rax,%rdi
  402f79:	e8 a2 d9 ff ff       	callq  400920 <fflush@plt>
  402f7e:	48 8b 15 5b 31 20 00 	mov    0x20315b(%rip),%rdx        # 6060e0 <stdin@@GLIBC_2.2.5+0x18>
  402f85:	8b 45 ec             	mov    -0x14(%rbp),%eax
  402f88:	48 98                	cltq   
  402f8a:	48 c1 e0 02          	shl    $0x2,%rax
  402f8e:	48 89 c1             	mov    %rax,%rcx
  402f91:	48 c1 e1 05          	shl    $0x5,%rcx
  402f95:	48 29 c1             	sub    %rax,%rcx
  402f98:	48 89 c8             	mov    %rcx,%rax
  402f9b:	48 01 c2             	add    %rax,%rdx
  402f9e:	48 8b 05 73 31 20 00 	mov    0x203173(%rip),%rax        # 606118 <stdin@@GLIBC_2.2.5+0x50>
  402fa5:	8b 00                	mov    (%rax),%eax
  402fa7:	89 42 78             	mov    %eax,0x78(%rdx)
  402faa:	48 8b 15 17 31 20 00 	mov    0x203117(%rip),%rdx        # 6060c8 <stdin@@GLIBC_2.2.5>
  402fb1:	48 8b 0d 28 31 20 00 	mov    0x203128(%rip),%rcx        # 6060e0 <stdin@@GLIBC_2.2.5+0x18>
  402fb8:	8b 45 ec             	mov    -0x14(%rbp),%eax
  402fbb:	48 98                	cltq   
  402fbd:	48 c1 e0 02          	shl    $0x2,%rax
  402fc1:	48 89 c6             	mov    %rax,%rsi
  402fc4:	48 c1 e6 05          	shl    $0x5,%rsi
  402fc8:	48 29 c6             	sub    %rax,%rsi
  402fcb:	48 89 f0             	mov    %rsi,%rax
  402fce:	48 01 c8             	add    %rcx,%rax
  402fd1:	48 83 c0 20          	add    $0x20,%rax
  402fd5:	be 58 00 00 00       	mov    $0x58,%esi
  402fda:	48 89 c7             	mov    %rax,%rdi
  402fdd:	e8 ee d8 ff ff       	callq  4008d0 <fgets@plt>
  402fe2:	48 8b 15 f7 30 20 00 	mov    0x2030f7(%rip),%rdx        # 6060e0 <stdin@@GLIBC_2.2.5+0x18>
  402fe9:	8b 45 ec             	mov    -0x14(%rbp),%eax
  402fec:	48 98                	cltq   
  402fee:	48 c1 e0 02          	shl    $0x2,%rax
  402ff2:	48 89 c1             	mov    %rax,%rcx
  402ff5:	48 c1 e1 05          	shl    $0x5,%rcx
  402ff9:	48 29 c1             	sub    %rax,%rcx
  402ffc:	48 89 c8             	mov    %rcx,%rax
  402fff:	48 01 d0             	add    %rdx,%rax
  403002:	48 83 c0 20          	add    $0x20,%rax
  403006:	be 58 00 00 00       	mov    $0x58,%esi
  40300b:	48 89 c7             	mov    %rax,%rdi
  40300e:	b8 00 00 00 00       	mov    $0x0,%eax
  403013:	e8 18 db ff ff       	callq  400b30 <rand@plt+0x1c0>
  403018:	8b 45 ec             	mov    -0x14(%rbp),%eax
  40301b:	89 45 fc             	mov    %eax,-0x4(%rbp)
  40301e:	8b 45 fc             	mov    -0x4(%rbp),%eax
  403021:	89 c7                	mov    %eax,%edi
  403023:	e8 07 00 00 00       	callq  40302f <rand@plt+0x26bf>
  403028:	b8 00 00 00 00       	mov    $0x0,%eax
  40302d:	c9                   	leaveq 
  40302e:	c3                   	retq   
  40302f:	55                   	push   %rbp
  403030:	48 89 e5             	mov    %rsp,%rbp
  403033:	53                   	push   %rbx
  403034:	48 83 ec 58          	sub    $0x58,%rsp
  403038:	89 7d ac             	mov    %edi,-0x54(%rbp)
  40303b:	64 48 8b 04 25 28 00 	mov    %fs:0x28,%rax
  403042:	00 00 
  403044:	48 89 45 e8          	mov    %rax,-0x18(%rbp)
  403048:	31 c0                	xor    %eax,%eax
  40304a:	48 8b 05 c7 30 20 00 	mov    0x2030c7(%rip),%rax        # 606118 <stdin@@GLIBC_2.2.5+0x50>
  403051:	8b 00                	mov    (%rax),%eax
  403053:	3d 09 03 00 00       	cmp    $0x309,%eax
  403058:	75 65                	jne    4030bf <rand@plt+0x274f>
  40305a:	be 00 00 00 00       	mov    $0x0,%esi
  40305f:	bf 56 44 40 00       	mov    $0x404456,%edi
  403064:	b8 00 00 00 00       	mov    $0x0,%eax
  403069:	e8 d2 d8 ff ff       	callq  400940 <open@plt>
  40306e:	89 45 bc             	mov    %eax,-0x44(%rbp)
  403071:	48 8d 4d c0          	lea    -0x40(%rbp),%rcx
  403075:	8b 45 bc             	mov    -0x44(%rbp),%eax
  403078:	ba 16 00 00 00       	mov    $0x16,%edx
  40307d:	48 89 ce             	mov    %rcx,%rsi
  403080:	89 c7                	mov    %eax,%edi
  403082:	b8 00 00 00 00       	mov    $0x0,%eax
  403087:	e8 14 d8 ff ff       	callq  4008a0 <read@plt>
  40308c:	48 8b 15 4d 30 20 00 	mov    0x20304d(%rip),%rdx        # 6060e0 <stdin@@GLIBC_2.2.5+0x18>
  403093:	8b 45 ac             	mov    -0x54(%rbp),%eax
  403096:	48 98                	cltq   
  403098:	48 c1 e0 02          	shl    $0x2,%rax
  40309c:	48 89 c1             	mov    %rax,%rcx
  40309f:	48 c1 e1 05          	shl    $0x5,%rcx
  4030a3:	48 29 c1             	sub    %rax,%rcx
  4030a6:	48 89 c8             	mov    %rcx,%rax
  4030a9:	48 01 d0             	add    %rdx,%rax
  4030ac:	48 8d 50 20          	lea    0x20(%rax),%rdx
  4030b0:	48 8d 45 c0          	lea    -0x40(%rbp),%rax
  4030b4:	48 89 c6             	mov    %rax,%rsi
  4030b7:	48 89 d7             	mov    %rdx,%rdi
  4030ba:	e8 a1 d7 ff ff       	callq  400860 <strcpy@plt>
  4030bf:	b8 01 00 00 00       	mov    $0x1,%eax
  4030c4:	48 8b 5d e8          	mov    -0x18(%rbp),%rbx
  4030c8:	64 48 33 1c 25 28 00 	xor    %fs:0x28,%rbx
  4030cf:	00 00 
  4030d1:	74 05                	je     4030d8 <rand@plt+0x2768>
  4030d3:	e8 b8 d7 ff ff       	callq  400890 <__stack_chk_fail@plt>
  4030d8:	48 83 c4 58          	add    $0x58,%rsp
  4030dc:	5b                   	pop    %rbx
  4030dd:	5d                   	pop    %rbp
  4030de:	c3                   	retq   
  4030df:	55                   	push   %rbp
  4030e0:	48 89 e5             	mov    %rsp,%rbp
  4030e3:	48 83 ec 10          	sub    $0x10,%rsp
  4030e7:	48 8b 05 22 30 20 00 	mov    0x203022(%rip),%rax        # 606110 <stdin@@GLIBC_2.2.5+0x48>
  4030ee:	8b 00                	mov    (%rax),%eax
  4030f0:	3d e7 03 00 00       	cmp    $0x3e7,%eax
  4030f5:	7f 1f                	jg     403116 <rand@plt+0x27a6>
  4030f7:	bf 63 44 40 00       	mov    $0x404463,%edi
  4030fc:	b8 00 00 00 00       	mov    $0x0,%eax
  403101:	e8 df 01 00 00       	callq  4032e5 <rand@plt+0x2975>
  403106:	c7 45 f8 01 00 00 00 	movl   $0x1,-0x8(%rbp)
  40310d:	c7 45 fc 0a 00 00 00 	movl   $0xa,-0x4(%rbp)
  403114:	eb 7b                	jmp    403191 <rand@plt+0x2821>
  403116:	48 8b 05 f3 2f 20 00 	mov    0x202ff3(%rip),%rax        # 606110 <stdin@@GLIBC_2.2.5+0x48>
  40311d:	8b 00                	mov    (%rax),%eax
  40311f:	3d 0f 27 00 00       	cmp    $0x270f,%eax
  403124:	7f 1f                	jg     403145 <rand@plt+0x27d5>
  403126:	bf 73 44 40 00       	mov    $0x404473,%edi
  40312b:	b8 00 00 00 00       	mov    $0x0,%eax
  403130:	e8 b0 01 00 00       	callq  4032e5 <rand@plt+0x2975>
  403135:	c7 45 f8 01 00 00 00 	movl   $0x1,-0x8(%rbp)
  40313c:	c7 45 fc 14 00 00 00 	movl   $0x14,-0x4(%rbp)
  403143:	eb 4c                	jmp    403191 <rand@plt+0x2821>
  403145:	48 8b 05 c4 2f 20 00 	mov    0x202fc4(%rip),%rax        # 606110 <stdin@@GLIBC_2.2.5+0x48>
  40314c:	8b 00                	mov    (%rax),%eax
  40314e:	3d 4f c3 00 00       	cmp    $0xc34f,%eax
  403153:	7f 1f                	jg     403174 <rand@plt+0x2804>
  403155:	bf 81 44 40 00       	mov    $0x404481,%edi
  40315a:	b8 00 00 00 00       	mov    $0x0,%eax
  40315f:	e8 81 01 00 00       	callq  4032e5 <rand@plt+0x2975>
  403164:	c7 45 f8 01 00 00 00 	movl   $0x1,-0x8(%rbp)
  40316b:	c7 45 fc 1e 00 00 00 	movl   $0x1e,-0x4(%rbp)
  403172:	eb 1d                	jmp    403191 <rand@plt+0x2821>
  403174:	bf 90 44 40 00       	mov    $0x404490,%edi
  403179:	b8 00 00 00 00       	mov    $0x0,%eax
  40317e:	e8 62 01 00 00       	callq  4032e5 <rand@plt+0x2975>
  403183:	c7 45 f8 01 00 00 00 	movl   $0x1,-0x8(%rbp)
  40318a:	c7 45 fc 64 00 00 00 	movl   $0x64,-0x4(%rbp)
  403191:	8b 55 fc             	mov    -0x4(%rbp),%edx
  403194:	8b 45 f8             	mov    -0x8(%rbp),%eax
  403197:	89 d6                	mov    %edx,%esi
  403199:	89 c7                	mov    %eax,%edi
  40319b:	e8 07 00 00 00       	callq  4031a7 <rand@plt+0x2837>
  4031a0:	b8 00 00 00 00       	mov    $0x0,%eax
  4031a5:	c9                   	leaveq 
  4031a6:	c3                   	retq   
  4031a7:	55                   	push   %rbp
  4031a8:	48 89 e5             	mov    %rsp,%rbp
  4031ab:	48 83 ec 20          	sub    $0x20,%rsp
  4031af:	89 7d ec             	mov    %edi,-0x14(%rbp)
  4031b2:	89 75 e8             	mov    %esi,-0x18(%rbp)
  4031b5:	48 8d 45 f0          	lea    -0x10(%rbp),%rax
  4031b9:	48 89 45 f8          	mov    %rax,-0x8(%rbp)
  4031bd:	bf 9d 44 40 00       	mov    $0x40449d,%edi
  4031c2:	b8 00 00 00 00       	mov    $0x0,%eax
  4031c7:	e8 19 01 00 00       	callq  4032e5 <rand@plt+0x2975>
  4031cc:	c7 45 f0 00 00 00 00 	movl   $0x0,-0x10(%rbp)
  4031d3:	eb 42                	jmp    403217 <rand@plt+0x28a7>
  4031d5:	8b 55 e8             	mov    -0x18(%rbp),%edx
  4031d8:	8b 45 ec             	mov    -0x14(%rbp),%eax
  4031db:	89 c6                	mov    %eax,%esi
  4031dd:	bf a8 44 40 00       	mov    $0x4044a8,%edi
  4031e2:	b8 00 00 00 00       	mov    $0x0,%eax
  4031e7:	e8 f9 00 00 00       	callq  4032e5 <rand@plt+0x2975>
  4031ec:	48 8b 45 f8          	mov    -0x8(%rbp),%rax
  4031f0:	48 89 c7             	mov    %rax,%rdi
  4031f3:	e8 6f dd ff ff       	callq  400f67 <rand@plt+0x5f7>
  4031f8:	8b 45 f0             	mov    -0x10(%rbp),%eax
  4031fb:	39 45 ec             	cmp    %eax,-0x14(%rbp)
  4031fe:	7f 08                	jg     403208 <rand@plt+0x2898>
  403200:	8b 45 f0             	mov    -0x10(%rbp),%eax
  403203:	39 45 e8             	cmp    %eax,-0x18(%rbp)
  403206:	7d 0f                	jge    403217 <rand@plt+0x28a7>
  403208:	bf 5a 42 40 00       	mov    $0x40425a,%edi
  40320d:	b8 00 00 00 00       	mov    $0x0,%eax
  403212:	e8 ce 00 00 00       	callq  4032e5 <rand@plt+0x2975>
  403217:	8b 45 f0             	mov    -0x10(%rbp),%eax
  40321a:	39 45 ec             	cmp    %eax,-0x14(%rbp)
  40321d:	7f b6                	jg     4031d5 <rand@plt+0x2865>
  40321f:	8b 45 f0             	mov    -0x10(%rbp),%eax
  403222:	39 45 e8             	cmp    %eax,-0x18(%rbp)
  403225:	7c ae                	jl     4031d5 <rand@plt+0x2865>
  403227:	bf 00 00 00 00       	mov    $0x0,%edi
  40322c:	e8 cf d6 ff ff       	callq  400900 <time@plt>
  403231:	89 c7                	mov    %eax,%edi
  403233:	e8 88 d6 ff ff       	callq  4008c0 <srand@plt>
  403238:	e8 33 d7 ff ff       	callq  400970 <rand@plt>
  40323d:	8b 55 e8             	mov    -0x18(%rbp),%edx
  403240:	8d 4a ff             	lea    -0x1(%rdx),%ecx
  403243:	99                   	cltd   
  403244:	f7 f9                	idiv   %ecx
  403246:	89 55 f4             	mov    %edx,-0xc(%rbp)
  403249:	83 45 f4 01          	addl   $0x1,-0xc(%rbp)
  40324d:	8b 45 f0             	mov    -0x10(%rbp),%eax
  403250:	39 45 f4             	cmp    %eax,-0xc(%rbp)
  403253:	75 2e                	jne    403283 <rand@plt+0x2913>
  403255:	bf cd 44 40 00       	mov    $0x4044cd,%edi
  40325a:	b8 00 00 00 00       	mov    $0x0,%eax
  40325f:	e8 81 00 00 00       	callq  4032e5 <rand@plt+0x2975>
  403264:	48 8b 05 9d 2e 20 00 	mov    0x202e9d(%rip),%rax        # 606108 <stdin@@GLIBC_2.2.5+0x40>
  40326b:	48 8b 15 96 2e 20 00 	mov    0x202e96(%rip),%rdx        # 606108 <stdin@@GLIBC_2.2.5+0x40>
  403272:	8b 0a                	mov    (%rdx),%ecx
  403274:	48 8b 15 95 2e 20 00 	mov    0x202e95(%rip),%rdx        # 606110 <stdin@@GLIBC_2.2.5+0x48>
  40327b:	8b 12                	mov    (%rdx),%edx
  40327d:	01 ca                	add    %ecx,%edx
  40327f:	89 10                	mov    %edx,(%rax)
  403281:	eb 2e                	jmp    4032b1 <rand@plt+0x2941>
  403283:	bf d3 44 40 00       	mov    $0x4044d3,%edi
  403288:	b8 00 00 00 00       	mov    $0x0,%eax
  40328d:	e8 53 00 00 00       	callq  4032e5 <rand@plt+0x2975>
  403292:	48 8b 05 6f 2e 20 00 	mov    0x202e6f(%rip),%rax        # 606108 <stdin@@GLIBC_2.2.5+0x40>
  403299:	48 8b 15 68 2e 20 00 	mov    0x202e68(%rip),%rdx        # 606108 <stdin@@GLIBC_2.2.5+0x40>
  4032a0:	8b 0a                	mov    (%rdx),%ecx
  4032a2:	48 8b 15 67 2e 20 00 	mov    0x202e67(%rip),%rdx        # 606110 <stdin@@GLIBC_2.2.5+0x48>
  4032a9:	8b 12                	mov    (%rdx),%edx
  4032ab:	29 d1                	sub    %edx,%ecx
  4032ad:	89 ca                	mov    %ecx,%edx
  4032af:	89 10                	mov    %edx,(%rax)
  4032b1:	48 8b 05 60 2e 20 00 	mov    0x202e60(%rip),%rax        # 606118 <stdin@@GLIBC_2.2.5+0x50>
  4032b8:	8b 10                	mov    (%rax),%edx
  4032ba:	48 8b 05 47 2e 20 00 	mov    0x202e47(%rip),%rax        # 606108 <stdin@@GLIBC_2.2.5+0x40>
  4032c1:	8b 00                	mov    (%rax),%eax
  4032c3:	39 c2                	cmp    %eax,%edx
  4032c5:	7d 12                	jge    4032d9 <rand@plt+0x2969>
  4032c7:	48 8b 05 4a 2e 20 00 	mov    0x202e4a(%rip),%rax        # 606118 <stdin@@GLIBC_2.2.5+0x50>
  4032ce:	48 8b 15 33 2e 20 00 	mov    0x202e33(%rip),%rdx        # 606108 <stdin@@GLIBC_2.2.5+0x40>
  4032d5:	8b 12                	mov    (%rdx),%edx
  4032d7:	89 10                	mov    %edx,(%rax)
  4032d9:	e8 3b f7 ff ff       	callq  402a19 <rand@plt+0x20a9>
  4032de:	b8 00 00 00 00       	mov    $0x0,%eax
  4032e3:	c9                   	leaveq 
  4032e4:	c3                   	retq   
  4032e5:	55                   	push   %rbp
  4032e6:	48 89 e5             	mov    %rsp,%rbp
  4032e9:	48 81 ec e0 00 00 00 	sub    $0xe0,%rsp
  4032f0:	48 89 b5 58 ff ff ff 	mov    %rsi,-0xa8(%rbp)
  4032f7:	48 89 95 60 ff ff ff 	mov    %rdx,-0xa0(%rbp)
  4032fe:	48 89 8d 68 ff ff ff 	mov    %rcx,-0x98(%rbp)
  403305:	4c 89 85 70 ff ff ff 	mov    %r8,-0x90(%rbp)
  40330c:	4c 89 8d 78 ff ff ff 	mov    %r9,-0x88(%rbp)
  403313:	84 c0                	test   %al,%al
  403315:	74 20                	je     403337 <rand@plt+0x29c7>
  403317:	0f 29 45 80          	movaps %xmm0,-0x80(%rbp)
  40331b:	0f 29 4d 90          	movaps %xmm1,-0x70(%rbp)
  40331f:	0f 29 55 a0          	movaps %xmm2,-0x60(%rbp)
  403323:	0f 29 5d b0          	movaps %xmm3,-0x50(%rbp)
  403327:	0f 29 65 c0          	movaps %xmm4,-0x40(%rbp)
  40332b:	0f 29 6d d0          	movaps %xmm5,-0x30(%rbp)
  40332f:	0f 29 75 e0          	movaps %xmm6,-0x20(%rbp)
  403333:	0f 29 7d f0          	movaps %xmm7,-0x10(%rbp)
  403337:	48 89 bd 28 ff ff ff 	mov    %rdi,-0xd8(%rbp)
  40333e:	c7 85 38 ff ff ff 08 	movl   $0x8,-0xc8(%rbp)
  403345:	00 00 00 
  403348:	c7 85 3c ff ff ff 30 	movl   $0x30,-0xc4(%rbp)
  40334f:	00 00 00 
  403352:	48 8d 45 10          	lea    0x10(%rbp),%rax
  403356:	48 89 85 40 ff ff ff 	mov    %rax,-0xc0(%rbp)
  40335d:	48 8d 85 50 ff ff ff 	lea    -0xb0(%rbp),%rax
  403364:	48 89 85 48 ff ff ff 	mov    %rax,-0xb8(%rbp)
  40336b:	48 8d 95 38 ff ff ff 	lea    -0xc8(%rbp),%rdx
  403372:	48 8b 85 28 ff ff ff 	mov    -0xd8(%rbp),%rax
  403379:	48 89 d6             	mov    %rdx,%rsi
  40337c:	48 89 c7             	mov    %rax,%rdi
  40337f:	e8 d2 00 00 00       	callq  403456 <rand@plt+0x2ae6>
  403384:	89 85 34 ff ff ff    	mov    %eax,-0xcc(%rbp)
  40338a:	8b 85 34 ff ff ff    	mov    -0xcc(%rbp),%eax
  403390:	c9                   	leaveq 
  403391:	c3                   	retq   
  403392:	55                   	push   %rbp
  403393:	48 89 e5             	mov    %rsp,%rbp
  403396:	ba 10 00 00 00       	mov    $0x10,%edx
  40339b:	be e8 44 40 00       	mov    $0x4044e8,%esi
  4033a0:	bf 01 00 00 00       	mov    $0x1,%edi
  4033a5:	b8 00 00 00 00       	mov    $0x0,%eax
  4033aa:	e8 d1 d4 ff ff       	callq  400880 <write@plt>
  4033af:	bf 01 00 00 00       	mov    $0x1,%edi
  4033b4:	e8 a7 d5 ff ff       	callq  400960 <exit@plt>
  4033b9:	55                   	push   %rbp
  4033ba:	48 89 e5             	mov    %rsp,%rbp
  4033bd:	48 83 ec 10          	sub    $0x10,%rsp
  4033c1:	89 f8                	mov    %edi,%eax
  4033c3:	88 45 fc             	mov    %al,-0x4(%rbp)
  4033c6:	48 8d 45 fc          	lea    -0x4(%rbp),%rax
  4033ca:	ba 01 00 00 00       	mov    $0x1,%edx
  4033cf:	48 89 c6             	mov    %rax,%rsi
  4033d2:	bf 01 00 00 00       	mov    $0x1,%edi
  4033d7:	b8 00 00 00 00       	mov    $0x0,%eax
  4033dc:	e8 9f d4 ff ff       	callq  400880 <write@plt>
  4033e1:	b8 01 00 00 00       	mov    $0x1,%eax
  4033e6:	c9                   	leaveq 
  4033e7:	c3                   	retq   
  4033e8:	55                   	push   %rbp
  4033e9:	48 89 e5             	mov    %rsp,%rbp
  4033ec:	48 83 ec 10          	sub    $0x10,%rsp
  4033f0:	48 89 7d f8          	mov    %rdi,-0x8(%rbp)
  4033f4:	48 8b 45 f8          	mov    -0x8(%rbp),%rax
  4033f8:	48 89 c7             	mov    %rax,%rdi
  4033fb:	e8 0e 05 00 00       	callq  40390e <rand@plt+0x2f9e>
  403400:	89 c2                	mov    %eax,%edx
  403402:	48 8b 45 f8          	mov    -0x8(%rbp),%rax
  403406:	48 89 c6             	mov    %rax,%rsi
  403409:	bf 01 00 00 00       	mov    $0x1,%edi
  40340e:	b8 00 00 00 00       	mov    $0x0,%eax
  403413:	e8 68 d4 ff ff       	callq  400880 <write@plt>
  403418:	b8 01 00 00 00       	mov    $0x1,%eax
  40341d:	c9                   	leaveq 
  40341e:	c3                   	retq   
  40341f:	55                   	push   %rbp
  403420:	48 89 e5             	mov    %rsp,%rbp
  403423:	48 83 ec 10          	sub    $0x10,%rsp
  403427:	48 89 7d f8          	mov    %rdi,-0x8(%rbp)
  40342b:	48 8b 45 f8          	mov    -0x8(%rbp),%rax
  40342f:	48 89 c7             	mov    %rax,%rdi
  403432:	e8 93 04 00 00       	callq  4038ca <rand@plt+0x2f5a>
  403437:	89 c2                	mov    %eax,%edx
  403439:	48 8b 45 f8          	mov    -0x8(%rbp),%rax
  40343d:	48 89 c6             	mov    %rax,%rsi
  403440:	bf 01 00 00 00       	mov    $0x1,%edi
  403445:	b8 00 00 00 00       	mov    $0x0,%eax
  40344a:	e8 31 d4 ff ff       	callq  400880 <write@plt>
  40344f:	b8 01 00 00 00       	mov    $0x1,%eax
  403454:	c9                   	leaveq 
  403455:	c3                   	retq   
  403456:	55                   	push   %rbp
  403457:	48 89 e5             	mov    %rsp,%rbp
  40345a:	53                   	push   %rbx
  40345b:	48 81 ec 98 00 00 00 	sub    $0x98,%rsp
  403462:	48 89 bd 68 ff ff ff 	mov    %rdi,-0x98(%rbp)
  403469:	48 89 b5 60 ff ff ff 	mov    %rsi,-0xa0(%rbp)
  403470:	64 48 8b 04 25 28 00 	mov    %fs:0x28,%rax
  403477:	00 00 
  403479:	48 89 45 e8          	mov    %rax,-0x18(%rbp)
  40347d:	31 c0                	xor    %eax,%eax
  40347f:	c7 85 78 ff ff ff 00 	movl   $0x0,-0x88(%rbp)
  403486:	00 00 00 
  403489:	e9 4b 02 00 00       	jmpq   4036d9 <rand@plt+0x2d69>
  40348e:	8b 85 78 ff ff ff    	mov    -0x88(%rbp),%eax
  403494:	48 63 d0             	movslq %eax,%rdx
  403497:	48 8b 85 68 ff ff ff 	mov    -0x98(%rbp),%rax
  40349e:	48 01 d0             	add    %rdx,%rax
  4034a1:	0f b6 00             	movzbl (%rax),%eax
  4034a4:	88 85 77 ff ff ff    	mov    %al,-0x89(%rbp)
  4034aa:	80 bd 77 ff ff ff 25 	cmpb   $0x25,-0x89(%rbp)
  4034b1:	74 13                	je     4034c6 <rand@plt+0x2b56>
  4034b3:	0f be 85 77 ff ff ff 	movsbl -0x89(%rbp),%eax
  4034ba:	89 c7                	mov    %eax,%edi
  4034bc:	e8 f8 fe ff ff       	callq  4033b9 <rand@plt+0x2a49>
  4034c1:	e9 0c 02 00 00       	jmpq   4036d2 <rand@plt+0x2d62>
  4034c6:	83 85 78 ff ff ff 01 	addl   $0x1,-0x88(%rbp)
  4034cd:	8b 85 78 ff ff ff    	mov    -0x88(%rbp),%eax
  4034d3:	48 63 d0             	movslq %eax,%rdx
  4034d6:	48 8b 85 68 ff ff ff 	mov    -0x98(%rbp),%rax
  4034dd:	48 01 d0             	add    %rdx,%rax
  4034e0:	0f b6 00             	movzbl (%rax),%eax
  4034e3:	88 85 77 ff ff ff    	mov    %al,-0x89(%rbp)
  4034e9:	0f be 85 77 ff ff ff 	movsbl -0x89(%rbp),%eax
  4034f0:	83 e8 44             	sub    $0x44,%eax
  4034f3:	83 f8 31             	cmp    $0x31,%eax
  4034f6:	0f 87 d5 01 00 00    	ja     4036d1 <rand@plt+0x2d61>
  4034fc:	89 c0                	mov    %eax,%eax
  4034fe:	48 8b 04 c5 f8 44 40 	mov    0x4044f8(,%rax,8),%rax
  403505:	00 
  403506:	ff e0                	jmpq   *%rax
  403508:	48 8b 85 60 ff ff ff 	mov    -0xa0(%rbp),%rax
  40350f:	8b 00                	mov    (%rax),%eax
  403511:	83 f8 30             	cmp    $0x30,%eax
  403514:	73 30                	jae    403546 <rand@plt+0x2bd6>
  403516:	48 8b 85 60 ff ff ff 	mov    -0xa0(%rbp),%rax
  40351d:	48 8b 50 10          	mov    0x10(%rax),%rdx
  403521:	48 8b 85 60 ff ff ff 	mov    -0xa0(%rbp),%rax
  403528:	8b 00                	mov    (%rax),%eax
  40352a:	89 c0                	mov    %eax,%eax
  40352c:	48 01 d0             	add    %rdx,%rax
  40352f:	48 8b 95 60 ff ff ff 	mov    -0xa0(%rbp),%rdx
  403536:	8b 12                	mov    (%rdx),%edx
  403538:	8d 4a 08             	lea    0x8(%rdx),%ecx
  40353b:	48 8b 95 60 ff ff ff 	mov    -0xa0(%rbp),%rdx
  403542:	89 0a                	mov    %ecx,(%rdx)
  403544:	eb 1d                	jmp    403563 <rand@plt+0x2bf3>
  403546:	48 8b 85 60 ff ff ff 	mov    -0xa0(%rbp),%rax
  40354d:	48 8b 50 08          	mov    0x8(%rax),%rdx
  403551:	48 89 d0             	mov    %rdx,%rax
  403554:	48 8d 4a 08          	lea    0x8(%rdx),%rcx
  403558:	48 8b 95 60 ff ff ff 	mov    -0xa0(%rbp),%rdx
  40355f:	48 89 4a 08          	mov    %rcx,0x8(%rdx)
  403563:	8b 00                	mov    (%rax),%eax
  403565:	48 8d 55 80          	lea    -0x80(%rbp),%rdx
  403569:	48 89 d6             	mov    %rdx,%rsi
  40356c:	89 c7                	mov    %eax,%edi
  40356e:	e8 af 01 00 00       	callq  403722 <rand@plt+0x2db2>
  403573:	48 8d 45 80          	lea    -0x80(%rbp),%rax
  403577:	48 89 c7             	mov    %rax,%rdi
  40357a:	e8 69 fe ff ff       	callq  4033e8 <rand@plt+0x2a78>
  40357f:	e9 4e 01 00 00       	jmpq   4036d2 <rand@plt+0x2d62>
  403584:	48 8b 85 60 ff ff ff 	mov    -0xa0(%rbp),%rax
  40358b:	8b 00                	mov    (%rax),%eax
  40358d:	83 f8 30             	cmp    $0x30,%eax
  403590:	73 30                	jae    4035c2 <rand@plt+0x2c52>
  403592:	48 8b 85 60 ff ff ff 	mov    -0xa0(%rbp),%rax
  403599:	48 8b 50 10          	mov    0x10(%rax),%rdx
  40359d:	48 8b 85 60 ff ff ff 	mov    -0xa0(%rbp),%rax
  4035a4:	8b 00                	mov    (%rax),%eax
  4035a6:	89 c0                	mov    %eax,%eax
  4035a8:	48 01 d0             	add    %rdx,%rax
  4035ab:	48 8b 95 60 ff ff ff 	mov    -0xa0(%rbp),%rdx
  4035b2:	8b 12                	mov    (%rdx),%edx
  4035b4:	8d 4a 08             	lea    0x8(%rdx),%ecx
  4035b7:	48 8b 95 60 ff ff ff 	mov    -0xa0(%rbp),%rdx
  4035be:	89 0a                	mov    %ecx,(%rdx)
  4035c0:	eb 1d                	jmp    4035df <rand@plt+0x2c6f>
  4035c2:	48 8b 85 60 ff ff ff 	mov    -0xa0(%rbp),%rax
  4035c9:	48 8b 50 08          	mov    0x8(%rax),%rdx
  4035cd:	48 89 d0             	mov    %rdx,%rax
  4035d0:	48 8d 4a 08          	lea    0x8(%rdx),%rcx
  4035d4:	48 8b 95 60 ff ff ff 	mov    -0xa0(%rbp),%rdx
  4035db:	48 89 4a 08          	mov    %rcx,0x8(%rdx)
  4035df:	8b 00                	mov    (%rax),%eax
  4035e1:	0f be c0             	movsbl %al,%eax
  4035e4:	89 c7                	mov    %eax,%edi
  4035e6:	e8 ce fd ff ff       	callq  4033b9 <rand@plt+0x2a49>
  4035eb:	e9 e2 00 00 00       	jmpq   4036d2 <rand@plt+0x2d62>
  4035f0:	48 8b 85 60 ff ff ff 	mov    -0xa0(%rbp),%rax
  4035f7:	8b 00                	mov    (%rax),%eax
  4035f9:	83 f8 30             	cmp    $0x30,%eax
  4035fc:	73 30                	jae    40362e <rand@plt+0x2cbe>
  4035fe:	48 8b 85 60 ff ff ff 	mov    -0xa0(%rbp),%rax
  403605:	48 8b 50 10          	mov    0x10(%rax),%rdx
  403609:	48 8b 85 60 ff ff ff 	mov    -0xa0(%rbp),%rax
  403610:	8b 00                	mov    (%rax),%eax
  403612:	89 c0                	mov    %eax,%eax
  403614:	48 01 d0             	add    %rdx,%rax
  403617:	48 8b 95 60 ff ff ff 	mov    -0xa0(%rbp),%rdx
  40361e:	8b 12                	mov    (%rdx),%edx
  403620:	8d 4a 08             	lea    0x8(%rdx),%ecx
  403623:	48 8b 95 60 ff ff ff 	mov    -0xa0(%rbp),%rdx
  40362a:	89 0a                	mov    %ecx,(%rdx)
  40362c:	eb 1d                	jmp    40364b <rand@plt+0x2cdb>
  40362e:	48 8b 85 60 ff ff ff 	mov    -0xa0(%rbp),%rax
  403635:	48 8b 50 08          	mov    0x8(%rax),%rdx
  403639:	48 89 d0             	mov    %rdx,%rax
  40363c:	48 8d 4a 08          	lea    0x8(%rdx),%rcx
  403640:	48 8b 95 60 ff ff ff 	mov    -0xa0(%rbp),%rdx
  403647:	48 89 4a 08          	mov    %rcx,0x8(%rdx)
  40364b:	8b 00                	mov    (%rax),%eax
  40364d:	48 8d 55 80          	lea    -0x80(%rbp),%rdx
  403651:	48 89 d6             	mov    %rdx,%rsi
  403654:	89 c7                	mov    %eax,%edi
  403656:	e8 c7 00 00 00       	callq  403722 <rand@plt+0x2db2>
  40365b:	48 8d 45 80          	lea    -0x80(%rbp),%rax
  40365f:	48 89 c7             	mov    %rax,%rdi
  403662:	e8 b8 fd ff ff       	callq  40341f <rand@plt+0x2aaf>
  403667:	eb 69                	jmp    4036d2 <rand@plt+0x2d62>
  403669:	48 8b 85 60 ff ff ff 	mov    -0xa0(%rbp),%rax
  403670:	8b 00                	mov    (%rax),%eax
  403672:	83 f8 30             	cmp    $0x30,%eax
  403675:	73 30                	jae    4036a7 <rand@plt+0x2d37>
  403677:	48 8b 85 60 ff ff ff 	mov    -0xa0(%rbp),%rax
  40367e:	48 8b 50 10          	mov    0x10(%rax),%rdx
  403682:	48 8b 85 60 ff ff ff 	mov    -0xa0(%rbp),%rax
  403689:	8b 00                	mov    (%rax),%eax
  40368b:	89 c0                	mov    %eax,%eax
  40368d:	48 01 d0             	add    %rdx,%rax
  403690:	48 8b 95 60 ff ff ff 	mov    -0xa0(%rbp),%rdx
  403697:	8b 12                	mov    (%rdx),%edx
  403699:	8d 4a 08             	lea    0x8(%rdx),%ecx
  40369c:	48 8b 95 60 ff ff ff 	mov    -0xa0(%rbp),%rdx
  4036a3:	89 0a                	mov    %ecx,(%rdx)
  4036a5:	eb 1d                	jmp    4036c4 <rand@plt+0x2d54>
  4036a7:	48 8b 85 60 ff ff ff 	mov    -0xa0(%rbp),%rax
  4036ae:	48 8b 50 08          	mov    0x8(%rax),%rdx
  4036b2:	48 89 d0             	mov    %rdx,%rax
  4036b5:	48 8d 4a 08          	lea    0x8(%rdx),%rcx
  4036b9:	48 8b 95 60 ff ff ff 	mov    -0xa0(%rbp),%rdx
  4036c0:	48 89 4a 08          	mov    %rcx,0x8(%rdx)
  4036c4:	48 8b 00             	mov    (%rax),%rax
  4036c7:	48 89 c7             	mov    %rax,%rdi
  4036ca:	e8 19 fd ff ff       	callq  4033e8 <rand@plt+0x2a78>
  4036cf:	eb 01                	jmp    4036d2 <rand@plt+0x2d62>
  4036d1:	90                   	nop
  4036d2:	83 85 78 ff ff ff 01 	addl   $0x1,-0x88(%rbp)
  4036d9:	48 8b 85 68 ff ff ff 	mov    -0x98(%rbp),%rax
  4036e0:	48 89 c7             	mov    %rax,%rdi
  4036e3:	e8 26 02 00 00       	callq  40390e <rand@plt+0x2f9e>
  4036e8:	3b 85 78 ff ff ff    	cmp    -0x88(%rbp),%eax
  4036ee:	0f 8f 9a fd ff ff    	jg     40348e <rand@plt+0x2b1e>
  4036f4:	c7 85 7c ff ff ff 01 	movl   $0x1,-0x84(%rbp)
  4036fb:	00 00 00 
  4036fe:	8b 85 7c ff ff ff    	mov    -0x84(%rbp),%eax
  403704:	48 8b 5d e8          	mov    -0x18(%rbp),%rbx
  403708:	64 48 33 1c 25 28 00 	xor    %fs:0x28,%rbx
  40370f:	00 00 
  403711:	74 05                	je     403718 <rand@plt+0x2da8>
  403713:	e8 78 d1 ff ff       	callq  400890 <__stack_chk_fail@plt>
  403718:	48 81 c4 98 00 00 00 	add    $0x98,%rsp
  40371f:	5b                   	pop    %rbx
  403720:	5d                   	pop    %rbp
  403721:	c3                   	retq   
  403722:	55                   	push   %rbp
  403723:	48 89 e5             	mov    %rsp,%rbp
  403726:	48 83 ec 20          	sub    $0x20,%rsp
  40372a:	89 7d ec             	mov    %edi,-0x14(%rbp)
  40372d:	48 89 75 e0          	mov    %rsi,-0x20(%rbp)
  403731:	c7 45 f8 00 00 00 00 	movl   $0x0,-0x8(%rbp)
  403738:	c7 45 fc 00 00 00 00 	movl   $0x0,-0x4(%rbp)
  40373f:	c7 45 f8 00 00 00 00 	movl   $0x0,-0x8(%rbp)
  403746:	eb 14                	jmp    40375c <rand@plt+0x2dec>
  403748:	8b 45 f8             	mov    -0x8(%rbp),%eax
  40374b:	48 63 d0             	movslq %eax,%rdx
  40374e:	48 8b 45 e0          	mov    -0x20(%rbp),%rax
  403752:	48 01 d0             	add    %rdx,%rax
  403755:	c6 00 00             	movb   $0x0,(%rax)
  403758:	83 45 f8 01          	addl   $0x1,-0x8(%rbp)
  40375c:	83 7d f8 17          	cmpl   $0x17,-0x8(%rbp)
  403760:	7e e6                	jle    403748 <rand@plt+0x2dd8>
  403762:	83 7d ec 00          	cmpl   $0x0,-0x14(%rbp)
  403766:	75 0c                	jne    403774 <rand@plt+0x2e04>
  403768:	48 8b 45 e0          	mov    -0x20(%rbp),%rax
  40376c:	c6 00 30             	movb   $0x30,(%rax)
  40376f:	e9 8c 00 00 00       	jmpq   403800 <rand@plt+0x2e90>
  403774:	83 7d ec 00          	cmpl   $0x0,-0x14(%rbp)
  403778:	79 0a                	jns    403784 <rand@plt+0x2e14>
  40377a:	c7 45 fc ff ff ff ff 	movl   $0xffffffff,-0x4(%rbp)
  403781:	f7 5d ec             	negl   -0x14(%rbp)
  403784:	c7 45 f8 00 00 00 00 	movl   $0x0,-0x8(%rbp)
  40378b:	eb 57                	jmp    4037e4 <rand@plt+0x2e74>
  40378d:	8b 45 f8             	mov    -0x8(%rbp),%eax
  403790:	48 63 d0             	movslq %eax,%rdx
  403793:	48 8b 45 e0          	mov    -0x20(%rbp),%rax
  403797:	48 8d 34 02          	lea    (%rdx,%rax,1),%rsi
  40379b:	8b 4d ec             	mov    -0x14(%rbp),%ecx
  40379e:	ba 67 66 66 66       	mov    $0x66666667,%edx
  4037a3:	89 c8                	mov    %ecx,%eax
  4037a5:	f7 ea                	imul   %edx
  4037a7:	c1 fa 02             	sar    $0x2,%edx
  4037aa:	89 c8                	mov    %ecx,%eax
  4037ac:	c1 f8 1f             	sar    $0x1f,%eax
  4037af:	29 c2                	sub    %eax,%edx
  4037b1:	89 d0                	mov    %edx,%eax
  4037b3:	c1 e0 02             	shl    $0x2,%eax
  4037b6:	01 d0                	add    %edx,%eax
  4037b8:	01 c0                	add    %eax,%eax
  4037ba:	29 c1                	sub    %eax,%ecx
  4037bc:	89 ca                	mov    %ecx,%edx
  4037be:	89 d0                	mov    %edx,%eax
  4037c0:	83 c0 30             	add    $0x30,%eax
  4037c3:	88 06                	mov    %al,(%rsi)
  4037c5:	8b 4d ec             	mov    -0x14(%rbp),%ecx
  4037c8:	ba 67 66 66 66       	mov    $0x66666667,%edx
  4037cd:	89 c8                	mov    %ecx,%eax
  4037cf:	f7 ea                	imul   %edx
  4037d1:	c1 fa 02             	sar    $0x2,%edx
  4037d4:	89 c8                	mov    %ecx,%eax
  4037d6:	c1 f8 1f             	sar    $0x1f,%eax
  4037d9:	29 c2                	sub    %eax,%edx
  4037db:	89 d0                	mov    %edx,%eax
  4037dd:	89 45 ec             	mov    %eax,-0x14(%rbp)
  4037e0:	83 45 f8 01          	addl   $0x1,-0x8(%rbp)
  4037e4:	83 7d ec 00          	cmpl   $0x0,-0x14(%rbp)
  4037e8:	75 a3                	jne    40378d <rand@plt+0x2e1d>
  4037ea:	83 7d fc ff          	cmpl   $0xffffffff,-0x4(%rbp)
  4037ee:	75 10                	jne    403800 <rand@plt+0x2e90>
  4037f0:	8b 45 f8             	mov    -0x8(%rbp),%eax
  4037f3:	48 63 d0             	movslq %eax,%rdx
  4037f6:	48 8b 45 e0          	mov    -0x20(%rbp),%rax
  4037fa:	48 01 d0             	add    %rdx,%rax
  4037fd:	c6 00 2d             	movb   $0x2d,(%rax)
  403800:	83 45 f8 01          	addl   $0x1,-0x8(%rbp)
  403804:	8b 45 f8             	mov    -0x8(%rbp),%eax
  403807:	48 63 d0             	movslq %eax,%rdx
  40380a:	48 8b 45 e0          	mov    -0x20(%rbp),%rax
  40380e:	48 01 d0             	add    %rdx,%rax
  403811:	c6 00 00             	movb   $0x0,(%rax)
  403814:	48 8b 45 e0          	mov    -0x20(%rbp),%rax
  403818:	48 89 c7             	mov    %rax,%rdi
  40381b:	e8 07 00 00 00       	callq  403827 <rand@plt+0x2eb7>
  403820:	b8 01 00 00 00       	mov    $0x1,%eax
  403825:	c9                   	leaveq 
  403826:	c3                   	retq   
  403827:	55                   	push   %rbp
  403828:	48 89 e5             	mov    %rsp,%rbp
  40382b:	48 83 ec 20          	sub    $0x20,%rsp
  40382f:	48 89 7d e8          	mov    %rdi,-0x18(%rbp)
  403833:	48 8b 45 e8          	mov    -0x18(%rbp),%rax
  403837:	48 89 c7             	mov    %rax,%rdi
  40383a:	e8 cf 00 00 00       	callq  40390e <rand@plt+0x2f9e>
  40383f:	89 45 fc             	mov    %eax,-0x4(%rbp)
  403842:	c7 45 f8 00 00 00 00 	movl   $0x0,-0x8(%rbp)
  403849:	eb 67                	jmp    4038b2 <rand@plt+0x2f42>
  40384b:	8b 45 fc             	mov    -0x4(%rbp),%eax
  40384e:	48 63 d0             	movslq %eax,%rdx
  403851:	8b 45 f8             	mov    -0x8(%rbp),%eax
  403854:	48 98                	cltq   
  403856:	48 29 c2             	sub    %rax,%rdx
  403859:	48 89 d0             	mov    %rdx,%rax
  40385c:	48 8d 50 ff          	lea    -0x1(%rax),%rdx
  403860:	48 8b 45 e8          	mov    -0x18(%rbp),%rax
  403864:	48 01 d0             	add    %rdx,%rax
  403867:	0f b6 00             	movzbl (%rax),%eax
  40386a:	88 45 f7             	mov    %al,-0x9(%rbp)
  40386d:	8b 45 fc             	mov    -0x4(%rbp),%eax
  403870:	48 63 d0             	movslq %eax,%rdx
  403873:	8b 45 f8             	mov    -0x8(%rbp),%eax
  403876:	48 98                	cltq   
  403878:	48 29 c2             	sub    %rax,%rdx
  40387b:	48 89 d0             	mov    %rdx,%rax
  40387e:	48 8d 50 ff          	lea    -0x1(%rax),%rdx
  403882:	48 8b 45 e8          	mov    -0x18(%rbp),%rax
  403886:	48 01 c2             	add    %rax,%rdx
  403889:	8b 45 f8             	mov    -0x8(%rbp),%eax
  40388c:	48 63 c8             	movslq %eax,%rcx
  40388f:	48 8b 45 e8          	mov    -0x18(%rbp),%rax
  403893:	48 01 c8             	add    %rcx,%rax
  403896:	0f b6 00             	movzbl (%rax),%eax
  403899:	88 02                	mov    %al,(%rdx)
  40389b:	8b 45 f8             	mov    -0x8(%rbp),%eax
  40389e:	48 63 d0             	movslq %eax,%rdx
  4038a1:	48 8b 45 e8          	mov    -0x18(%rbp),%rax
  4038a5:	48 01 c2             	add    %rax,%rdx
  4038a8:	0f b6 45 f7          	movzbl -0x9(%rbp),%eax
  4038ac:	88 02                	mov    %al,(%rdx)
  4038ae:	83 45 f8 01          	addl   $0x1,-0x8(%rbp)
  4038b2:	8b 45 fc             	mov    -0x4(%rbp),%eax
  4038b5:	89 c2                	mov    %eax,%edx
  4038b7:	c1 ea 1f             	shr    $0x1f,%edx
  4038ba:	01 d0                	add    %edx,%eax
  4038bc:	d1 f8                	sar    %eax
  4038be:	3b 45 f8             	cmp    -0x8(%rbp),%eax
  4038c1:	7f 88                	jg     40384b <rand@plt+0x2edb>
  4038c3:	b8 01 00 00 00       	mov    $0x1,%eax
  4038c8:	c9                   	leaveq 
  4038c9:	c3                   	retq   
  4038ca:	55                   	push   %rbp
  4038cb:	48 89 e5             	mov    %rsp,%rbp
  4038ce:	48 89 7d e8          	mov    %rdi,-0x18(%rbp)
  4038d2:	c7 45 fc 00 00 00 00 	movl   $0x0,-0x4(%rbp)
  4038d9:	eb 25                	jmp    403900 <rand@plt+0x2f90>
  4038db:	8b 45 fc             	mov    -0x4(%rbp),%eax
  4038de:	48 63 d0             	movslq %eax,%rdx
  4038e1:	48 8b 45 e8          	mov    -0x18(%rbp),%rax
  4038e5:	48 01 d0             	add    %rdx,%rax
  4038e8:	0f b6 00             	movzbl (%rax),%eax
  4038eb:	3c 71                	cmp    $0x71,%al
  4038ed:	75 02                	jne    4038f1 <rand@plt+0x2f81>
  4038ef:	eb 18                	jmp    403909 <rand@plt+0x2f99>
  4038f1:	81 7d fc 1f 03 00 00 	cmpl   $0x31f,-0x4(%rbp)
  4038f8:	7e 02                	jle    4038fc <rand@plt+0x2f8c>
  4038fa:	eb 0d                	jmp    403909 <rand@plt+0x2f99>
  4038fc:	83 45 fc 01          	addl   $0x1,-0x4(%rbp)
  403900:	81 7d fc fe ff 00 00 	cmpl   $0xfffe,-0x4(%rbp)
  403907:	7e d2                	jle    4038db <rand@plt+0x2f6b>
  403909:	8b 45 fc             	mov    -0x4(%rbp),%eax
  40390c:	5d                   	pop    %rbp
  40390d:	c3                   	retq   
  40390e:	55                   	push   %rbp
  40390f:	48 89 e5             	mov    %rsp,%rbp
  403912:	48 89 7d e8          	mov    %rdi,-0x18(%rbp)
  403916:	c7 45 fc 00 00 00 00 	movl   $0x0,-0x4(%rbp)
  40391d:	eb 1a                	jmp    403939 <rand@plt+0x2fc9>
  40391f:	8b 45 fc             	mov    -0x4(%rbp),%eax
  403922:	48 63 d0             	movslq %eax,%rdx
  403925:	48 8b 45 e8          	mov    -0x18(%rbp),%rax
  403929:	48 01 d0             	add    %rdx,%rax
  40392c:	0f b6 00             	movzbl (%rax),%eax
  40392f:	84 c0                	test   %al,%al
  403931:	75 02                	jne    403935 <rand@plt+0x2fc5>
  403933:	eb 0d                	jmp    403942 <rand@plt+0x2fd2>
  403935:	83 45 fc 01          	addl   $0x1,-0x4(%rbp)
  403939:	81 7d fc fe ff 00 00 	cmpl   $0xfffe,-0x4(%rbp)
  403940:	7e dd                	jle    40391f <rand@plt+0x2faf>
  403942:	8b 45 fc             	mov    -0x4(%rbp),%eax
  403945:	5d                   	pop    %rbp
  403946:	c3                   	retq   
  403947:	66 0f 1f 84 00 00 00 	nopw   0x0(%rax,%rax,1)
  40394e:	00 00 
  403950:	41 57                	push   %r15
  403952:	41 89 ff             	mov    %edi,%r15d
  403955:	41 56                	push   %r14
  403957:	49 89 f6             	mov    %rsi,%r14
  40395a:	41 55                	push   %r13
  40395c:	49 89 d5             	mov    %rdx,%r13
  40395f:	41 54                	push   %r12
  403961:	4c 8d 25 a8 24 20 00 	lea    0x2024a8(%rip),%r12        # 605e10 <rand@plt+0x2054a0>
  403968:	55                   	push   %rbp
  403969:	48 8d 2d a8 24 20 00 	lea    0x2024a8(%rip),%rbp        # 605e18 <rand@plt+0x2054a8>
  403970:	53                   	push   %rbx
  403971:	4c 29 e5             	sub    %r12,%rbp
  403974:	31 db                	xor    %ebx,%ebx
  403976:	48 c1 fd 03          	sar    $0x3,%rbp
  40397a:	48 83 ec 08          	sub    $0x8,%rsp
  40397e:	e8 9d ce ff ff       	callq  400820 <free@plt-0x30>
  403983:	48 85 ed             	test   %rbp,%rbp
  403986:	74 1e                	je     4039a6 <rand@plt+0x3036>
  403988:	0f 1f 84 00 00 00 00 	nopl   0x0(%rax,%rax,1)
  40398f:	00 
  403990:	4c 89 ea             	mov    %r13,%rdx
  403993:	4c 89 f6             	mov    %r14,%rsi
  403996:	44 89 ff             	mov    %r15d,%edi
  403999:	41 ff 14 dc          	callq  *(%r12,%rbx,8)
  40399d:	48 83 c3 01          	add    $0x1,%rbx
  4039a1:	48 39 eb             	cmp    %rbp,%rbx
  4039a4:	75 ea                	jne    403990 <rand@plt+0x3020>
  4039a6:	48 83 c4 08          	add    $0x8,%rsp
  4039aa:	5b                   	pop    %rbx
  4039ab:	5d                   	pop    %rbp
  4039ac:	41 5c                	pop    %r12
  4039ae:	41 5d                	pop    %r13
  4039b0:	41 5e                	pop    %r14
  4039b2:	41 5f                	pop    %r15
  4039b4:	c3                   	retq   
  4039b5:	66 66 2e 0f 1f 84 00 	data16 nopw %cs:0x0(%rax,%rax,1)
  4039bc:	00 00 00 00 
  4039c0:	f3 c3                	repz retq 

Disassembly of section .fini:

00000000004039c4 <.fini>:
  4039c4:	48 83 ec 08          	sub    $0x8,%rsp
  4039c8:	48 83 c4 08          	add    $0x8,%rsp
  4039cc:	c3                   	retq   
